((lp1
((lp2
F0
aF0.0022522522522522522
aF0.0045045045045045045
aF0.0067567567567567571
aF0.0090090090090090089
aF0.013513513513513514
aF0.018018018018018018
aF0.020270270270270271
aF0.024774774774774775
aF0.031531531531531529
aF0.0518018018018018
aF1
a(lp3
F0.59832635983263593
aF0.72384937238493718
aF0.78661087866108792
aF0.82426778242677823
aF0.89121338912133896
aF0.92050209205020916
aF0.92887029288702927
aF0.97071129707112969
aF0.9874476987447699
aF0.99163179916317989
aF0.99581589958159
aF0.99581589958159
aS'tpr/fpr'
p4
tp5
aS''
t.