(S'breast cancers averages over 10 fold cross validation varying hidden units from 1 to 10, hidden layer = 1, epochs = 100'
p1
(lp2
F65.0070618773142
aF71.183532465549476
aF71.47472356885649
aF68.095297171431838
aF77.611494954893061
aF71.238945935285216
aF77.856592994108738
aF80.895808680383254
aF80.89793996768077
aF83.981117430749066
at.