((lp1
((lp2
I0
aI1
aI2
aI3
aI4
aI5
aI6
aI7
aI8
aI9
aI10
aI11
aI12
aI13
aI14
aI15
aI16
aI17
aI18
aI19
aI20
aI21
aI22
aI23
aI24
aI25
aI26
aI27
aI28
aI29
aI30
aI31
aI32
aI33
aI34
aI35
aI36
aI37
aI38
aI39
aI40
aI41
aI42
aI43
aI44
aI45
aI46
aI47
aI48
aI49
aI50
aI51
aI52
aI53
aI54
aI55
aI56
aI57
aI58
aI59
aI60
aI61
aI62
aI63
aI64
aI65
aI66
aI67
aI68
aI69
aI70
aI71
aI72
aI73
aI74
aI75
aI76
aI77
aI78
aI79
aI80
aI81
aI82
aI83
aI84
aI85
aI86
aI87
aI88
aI89
aI90
aI91
aI92
aI93
aI94
aI95
aI96
aI97
aI98
aI99
aI100
aI101
aI102
aI103
aI104
aI105
aI106
aI107
aI108
aI109
aI110
aI111
aI112
aI113
aI114
aI115
aI116
aI117
aI118
aI119
aI120
aI121
aI122
aI123
aI124
aI125
aI126
aI127
aI128
aI129
aI130
aI131
aI132
aI133
aI134
aI135
aI136
aI137
aI138
aI139
aI140
aI141
aI142
aI143
aI144
aI145
aI146
aI147
aI148
aI149
aI150
aI151
aI152
aI153
aI154
aI155
aI156
aI157
aI158
aI159
aI160
aI161
aI162
aI163
aI164
aI165
aI166
aI167
aI168
aI169
aI170
aI171
aI172
aI173
aI174
aI175
aI176
aI177
aI178
aI179
aI180
aI181
aI182
aI183
aI184
aI185
aI186
aI187
aI188
aI189
aI190
aI191
aI192
aI193
aI194
aI195
aI196
aI197
aI198
aI199
aI200
aI201
aI202
aI203
aI204
aI205
aI206
aI207
aI208
aI209
aI210
aI211
aI212
aI213
aI214
aI215
aI216
aI217
aI218
aI219
aI220
aI221
aI222
aI223
aI224
aI225
aI226
aI227
aI228
aI229
aI230
aI231
aI232
aI233
aI234
aI235
aI236
aI237
aI238
aI239
aI240
aI241
aI242
aI243
aI244
aI245
aI246
aI247
aI248
aI249
aI250
aI251
aI252
aI253
aI254
aI255
aI256
aI257
aI258
aI259
aI260
aI261
aI262
aI263
aI264
aI265
aI266
aI267
aI268
aI269
aI270
aI271
aI272
aI273
aI274
aI275
aI276
aI277
aI278
aI279
aI280
aI281
aI282
aI283
aI284
aI285
aI286
aI287
aI288
aI289
aI290
aI291
aI292
aI293
aI294
aI295
aI296
aI297
aI298
aI299
aI300
aI301
aI302
aI303
aI304
aI305
aI306
aI307
aI308
aI309
aI310
aI311
aI312
aI313
aI314
aI315
aI316
aI317
aI318
aI319
aI320
aI321
aI322
aI323
aI324
aI325
aI326
aI327
aI328
aI329
aI330
aI331
aI332
aI333
aI334
aI335
aI336
aI337
aI338
aI339
aI340
aI341
aI342
aI343
aI344
aI345
aI346
aI347
aI348
aI349
aI350
aI351
aI352
aI353
aI354
aI355
aI356
aI357
aI358
aI359
aI360
aI361
aI362
aI363
aI364
aI365
aI366
aI367
aI368
aI369
aI370
aI371
aI372
aI373
aI374
aI375
aI376
aI377
aI378
aI379
aI380
aI381
aI382
aI383
aI384
aI385
aI386
aI387
aI388
aI389
aI390
aI391
aI392
aI393
aI394
aI395
aI396
aI397
aI398
aI399
aI400
aI401
aI402
aI403
aI404
aI405
aI406
aI407
aI408
aI409
aI410
aI411
aI412
aI413
aI414
aI415
aI416
aI417
aI418
aI419
aI420
aI421
aI422
aI423
aI424
aI425
aI426
aI427
aI428
aI429
aI430
aI431
aI432
aI433
aI434
aI435
aI436
aI437
aI438
aI439
aI440
aI441
aI442
aI443
aI444
aI445
aI446
aI447
aI448
aI449
aI450
aI451
aI452
aI453
aI454
aI455
aI456
aI457
aI458
aI459
aI460
aI461
aI462
aI463
aI464
aI465
aI466
aI467
aI468
aI469
aI470
aI471
aI472
aI473
aI474
aI475
aI476
aI477
aI478
aI479
aI480
aI481
aI482
aI483
aI484
aI485
aI486
aI487
aI488
aI489
aI490
aI491
aI492
aI493
aI494
aI495
aI496
aI497
aI498
aI499
aI500
aI501
aI502
aI503
aI504
aI505
aI506
aI507
aI508
aI509
aI510
aI511
aI512
aI513
aI514
aI515
aI516
aI517
aI518
aI519
aI520
aI521
aI522
aI523
aI524
aI525
aI526
aI527
aI528
aI529
aI530
aI531
aI532
aI533
aI534
aI535
aI536
aI537
aI538
aI539
aI540
aI541
aI542
aI543
aI544
aI545
aI546
aI547
aI548
aI549
aI550
aI551
aI552
aI553
aI554
aI555
aI556
aI557
aI558
aI559
aI560
aI561
aI562
aI563
aI564
aI565
aI566
aI567
aI568
aI569
aI570
aI571
aI572
aI573
aI574
aI575
aI576
aI577
aI578
aI579
aI580
aI581
aI582
aI583
aI584
aI585
aI586
aI587
aI588
aI589
aI590
aI591
aI592
aI593
aI594
aI595
aI596
aI597
aI598
aI599
aI600
aI601
aI602
aI603
aI604
aI605
aI606
aI607
aI608
aI609
aI610
aI611
aI612
aI613
aI614
aI615
aI616
aI617
aI618
aI619
aI620
aI621
aI622
aI623
aI624
aI625
aI626
aI627
aI628
aI629
aI630
aI631
aI632
aI633
aI634
aI635
aI636
aI637
aI638
aI639
aI640
aI641
aI642
aI643
aI644
aI645
aI646
aI647
aI648
aI649
aI650
aI651
aI652
aI653
aI654
aI655
aI656
aI657
aI658
aI659
aI660
aI661
aI662
aI663
aI664
aI665
aI666
aI667
aI668
aI669
aI670
aI671
aI672
aI673
aI674
aI675
aI676
aI677
aI678
aI679
aI680
aI681
aI682
aI683
aI684
aI685
aI686
aI687
aI688
aI689
aI690
aI691
aI692
aI693
aI694
aI695
aI696
aI697
aI698
aI699
aI700
aI701
aI702
aI703
aI704
aI705
aI706
aI707
aI708
aI709
aI710
aI711
aI712
aI713
aI714
aI715
aI716
aI717
aI718
aI719
aI720
aI721
aI722
aI723
aI724
aI725
aI726
aI727
aI728
aI729
aI730
aI731
aI732
aI733
aI734
aI735
aI736
aI737
aI738
aI739
aI740
aI741
aI742
aI743
aI744
aI745
aI746
aI747
aI748
aI749
aI750
aI751
aI752
aI753
aI754
aI755
aI756
aI757
aI758
aI759
aI760
aI761
aI762
aI763
aI764
aI765
aI766
aI767
aI768
aI769
aI770
aI771
aI772
aI773
aI774
aI775
aI776
aI777
aI778
aI779
aI780
aI781
aI782
aI783
aI784
aI785
aI786
aI787
aI788
aI789
aI790
aI791
aI792
aI793
aI794
aI795
aI796
aI797
aI798
aI799
aI800
aI801
aI802
aI803
aI804
aI805
aI806
aI807
aI808
aI809
aI810
aI811
aI812
aI813
aI814
aI815
aI816
aI817
aI818
aI819
aI820
aI821
aI822
aI823
aI824
aI825
aI826
aI827
aI828
aI829
aI830
aI831
aI832
aI833
aI834
aI835
aI836
aI837
aI838
aI839
aI840
aI841
aI842
aI843
aI844
aI845
aI846
aI847
aI848
aI849
aI850
aI851
aI852
aI853
aI854
aI855
aI856
aI857
aI858
aI859
aI860
aI861
aI862
aI863
aI864
aI865
aI866
aI867
aI868
aI869
aI870
aI871
aI872
aI873
aI874
aI875
aI876
aI877
aI878
aI879
aI880
aI881
aI882
aI883
aI884
aI885
aI886
aI887
aI888
aI889
aI890
aI891
aI892
aI893
aI894
aI895
aI896
aI897
aI898
aI899
aI900
aI901
aI902
aI903
aI904
aI905
aI906
aI907
aI908
aI909
aI910
aI911
aI912
aI913
aI914
aI915
aI916
aI917
aI918
aI919
aI920
aI921
aI922
aI923
aI924
aI925
aI926
aI927
aI928
aI929
aI930
aI931
aI932
aI933
aI934
aI935
aI936
aI937
aI938
aI939
aI940
aI941
aI942
aI943
aI944
aI945
aI946
aI947
aI948
aI949
aI950
aI951
aI952
aI953
aI954
aI955
aI956
aI957
aI958
aI959
aI960
aI961
aI962
aI963
aI964
aI965
aI966
aI967
aI968
aI969
aI970
aI971
aI972
aI973
aI974
aI975
aI976
aI977
aI978
aI979
aI980
aI981
aI982
aI983
aI984
aI985
aI986
aI987
aI988
aI989
aI990
aI991
aI992
aI993
aI994
aI995
aI996
aI997
aI998
aI999
a(lp3
F65.007320644216691
aF65.007320644216691
aF65.007320644216691
aF68.130795510004887
aF83.666829347649269
aF94.533918984870667
aF93.769318366682924
aF94.582723279648604
aF94.956889539612817
aF94.794208557019687
aF94.208557019684406
aF93.590369285830491
aF93.16739873108834
aF93.199934927606961
aF94.045876037091276
aF94.354969904018219
aF94.680331869204494
aF94.908085244834879
aF95.168374816983885
aF95.428664389132905
aF95.656417764763304
aF95.835366845615738
aF95.900439238653007
aF95.981779729949565
aF96.111924516024075
aF96.193265007320647
aF96.290873596876523
aF96.355945989913778
aF96.453554579469653
aF96.534895070766225
aF96.665039856840735
aF96.713844151618673
aF96.746380348137308
aF96.811452741174548
aF96.876525134211818
aF96.909061330730438
aF96.99040182202701
aF97.022938018545631
aF97.104278509842203
aF97.136814706360823
aF97.234423295916699
aF97.234423295916699
aF97.283227590694636
aF97.348299983731906
aF97.348299983731906
aF97.348299983731906
aF97.380836180250526
aF97.380836180250526
aF97.380836180250526
aF97.364568081991223
aF97.364568081991223
aF97.380836180250526
aF97.364568081991223
aF97.364568081991223
aF97.348299983731906
aF97.364568081991223
aF97.364568081991223
aF97.348299983731906
aF97.364568081991223
aF97.364568081991223
aF97.364568081991223
aF97.364568081991223
aF97.364568081991223
aF97.364568081991223
aF97.364568081991223
aF97.348299983731906
aF97.364568081991223
aF97.348299983731906
aF97.364568081991223
aF97.364568081991223
aF97.364568081991223
aF97.348299983731906
aF97.315763787213271
aF97.299495688953968
aF97.315763787213271
aF97.332031885472588
aF97.332031885472588
aF97.348299983731906
aF97.380836180250526
aF97.380836180250526
aF97.364568081991223
aF97.364568081991223
aF97.380836180250526
aF97.380836180250526
aF97.380836180250526
aF97.380836180250526
aF97.364568081991223
aF97.348299983731906
aF97.348299983731906
aF97.332031885472588
aF97.332031885472588
aF97.364568081991223
aF97.364568081991223
aF97.364568081991223
aF97.364568081991223
aF97.364568081991223
aF97.364568081991223
aF97.332031885472588
aF97.332031885472588
aF97.332031885472588
aF97.299495688953968
aF97.283227590694636
aF97.299495688953968
aF97.315763787213271
aF97.332031885472588
aF97.332031885472588
aF97.348299983731906
aF97.348299983731906
aF97.348299983731906
aF97.364568081991223
aF97.364568081991223
aF97.364568081991223
aF97.364568081991223
aF97.364568081991223
aF97.364568081991223
aF97.397104278509843
aF97.413372376769161
aF97.429640475028464
aF97.413372376769161
aF97.429640475028464
aF97.445908573287781
aF97.413372376769161
aF97.413372376769161
aF97.413372376769161
aF97.413372376769161
aF97.413372376769161
aF97.413372376769161
aF97.429640475028464
aF97.445908573287781
aF97.429640475028464
aF97.445908573287781
aF97.462176671547098
aF97.429640475028464
aF97.413372376769161
aF97.429640475028464
aF97.462176671547098
aF97.364568081991223
aF97.413372376769161
aF97.445908573287781
aF97.413372376769161
aF97.413372376769161
aF97.380836180250526
aF97.364568081991223
aF97.429640475028464
aF97.429640475028464
aF97.380836180250526
aF97.380836180250526
aF97.429640475028464
aF97.429640475028464
aF97.380836180250526
aF97.397104278509843
aF97.397104278509843
aF97.429640475028464
aF97.429640475028464
aF97.413372376769161
aF97.380836180250526
aF97.332031885472588
aF97.397104278509843
aF97.380836180250526
aF97.380836180250526
aF97.380836180250526
aF97.283227590694636
aF97.445908573287781
aF97.380836180250526
aF97.413372376769161
aF97.380836180250526
aF97.348299983731906
aF97.462176671547098
aF97.380836180250526
aF97.413372376769161
aF97.462176671547098
aF97.413372376769161
aF97.445908573287781
aF97.494712868065719
aF97.494712868065719
aF97.445908573287781
aF97.478444769806401
aF97.462176671547098
aF97.543517162843656
aF97.494712868065719
aF97.510980966325036
aF97.494712868065719
aF97.429640475028464
aF97.527249064584353
aF97.527249064584353
aF97.510980966325036
aF97.462176671547098
aF97.527249064584353
aF97.478444769806401
aF97.527249064584353
aF97.510980966325036
aF97.510980966325036
aF97.510980966325036
aF97.527249064584353
aF97.527249064584353
aF97.527249064584353
aF97.576053359362291
aF97.559785261102988
aF97.543517162843656
aF97.576053359362291
aF97.543517162843656
aF97.462176671547098
aF97.576053359362291
aF97.624857654140229
aF97.527249064584353
aF97.510980966325036
aF97.576053359362291
aF97.445908573287781
aF97.576053359362291
aF97.510980966325036
aF97.641125752399546
aF97.641125752399546
aF97.462176671547098
aF97.494712868065719
aF97.657393850658863
aF97.576053359362291
aF97.559785261102988
aF97.624857654140229
aF97.624857654140229
aF97.608589555880926
aF97.608589555880926
aF97.576053359362291
aF97.576053359362291
aF97.576053359362291
aF97.592321457621594
aF97.608589555880926
aF97.543517162843656
aF97.478444769806401
aF97.592321457621594
aF97.657393850658863
aF97.608589555880926
aF97.608589555880926
aF97.722466243696118
aF97.706198145436801
aF97.706198145436801
aF97.673661948918166
aF97.738734341955421
aF97.657393850658863
aF97.673661948918166
aF97.657393850658863
aF97.689930047177484
aF97.608589555880926
aF97.673661948918166
aF97.673661948918166
aF97.657393850658863
aF97.771270538474056
aF97.201887099398078
aF97.641125752399546
aF97.689930047177484
aF97.608589555880926
aF97.836342931511311
aF97.787538636733359
aF97.771270538474056
aF97.836342931511311
aF97.787538636733359
aF97.738734341955421
aF97.803806734992676
aF97.803806734992676
aF97.820074833251994
aF97.608589555880926
aF97.885147226289249
aF97.885147226289249
aF97.901415324548552
aF97.868879128029931
aF97.901415324548552
aF97.868879128029931
aF97.901415324548552
aF97.917683422807883
aF97.803806734992676
aF97.885147226289249
aF97.852611029770614
aF97.657393850658863
aF97.787538636733359
aF97.820074833251994
aF97.852611029770614
aF97.803806734992676
aF97.771270538474056
aF97.836342931511311
aF97.771270538474056
aF97.885147226289249
aF97.852611029770614
aF97.836342931511311
aF97.950219619326504
aF97.901415324548552
aF97.803806734992676
aF98.047828208882379
aF97.901415324548552
aF97.966487717585821
aF98.047828208882379
aF97.999023914104441
aF97.999023914104441
aF98.015292012363759
aF97.999023914104441
aF97.933951521067186
aF97.999023914104441
aF97.950219619326504
aF98.047828208882379
aF98.031560110623076
aF98.064096307141696
aF98.112900601919634
aF98.096632503660317
aF98.096632503660317
aF98.064096307141696
aF98.096632503660317
aF98.096632503660317
aF98.112900601919634
aF98.129168700178951
aF98.096632503660317
aF98.177972994956889
aF98.145436798438269
aF98.096632503660317
aF98.112900601919634
aF97.982755815845124
aF97.820074833251994
aF97.673661948918166
aF97.950219619326504
aF97.885147226289249
aF97.852611029770614
aF98.047828208882379
aF98.015292012363759
aF97.803806734992676
aF97.999023914104441
aF98.096632503660317
aF98.161704896697572
aF98.161704896697572
aF98.129168700178951
aF98.096632503660317
aF98.047828208882379
aF97.950219619326504
aF98.145436798438269
aF98.145436798438269
aF98.259313486253447
aF98.226777289734841
aF98.145436798438269
aF98.064096307141696
aF98.210509191475509
aF98.243045387994144
aF98.145436798438269
aF98.226777289734841
aF98.210509191475509
aF98.226777289734841
aF98.259313486253447
aF98.389458272327971
aF98.308117781031399
aF98.161704896697572
aF98.373190174068654
aF98.405726370587274
aF98.324385879290716
aF98.373190174068654
aF98.226777289734841
aF98.438262567105909
aF98.438262567105909
aF98.405726370587274
aF98.340653977550033
aF98.421994468846592
aF98.438262567105909
aF98.503334960143164
aF98.487066861883847
aF98.438262567105909
aF98.438262567105909
aF98.438262567105909
aF98.438262567105909
aF98.470798763624529
aF98.373190174068654
aF98.421994468846592
aF98.373190174068654
aF98.405726370587274
aF98.405726370587274
aF98.308117781031399
aF98.438262567105909
aF98.129168700178951
aF98.226777289734841
aF98.161704896697572
aF98.308117781031399
aF98.519603058402467
aF98.291849682772082
aF98.454530665365212
aF98.389458272327971
aF98.389458272327971
aF98.421994468846592
aF98.438262567105909
aF98.421994468846592
aF98.421994468846592
aF98.454530665365212
aF98.454530665365212
aF98.535871156661798
aF98.568407353180405
aF98.584675451439736
aF98.552139254921101
aF98.584675451439736
aF98.649747844476977
aF98.617211647958356
aF98.666015942736294
aF98.633479746217674
aF98.438262567105909
aF98.682284040995611
aF98.698552139254929
aF98.682284040995611
aF98.666015942736294
aF98.633479746217674
aF98.698552139254929
aF98.649747844476977
aF98.714820237514232
aF98.714820237514232
aF98.649747844476977
aF98.649747844476977
aF98.617211647958356
aF98.747356434032866
aF98.633479746217674
aF98.633479746217674
aF98.259313486253447
aF98.714820237514232
aF98.600943549699039
aF98.76362453229217
aF98.633479746217674
aF98.731088335773549
aF98.796160728810804
aF98.649747844476977
aF98.682284040995611
aF98.747356434032866
aF98.796160728810804
aF98.796160728810804
aF98.812428827070121
aF98.633479746217674
aF98.812428827070121
aF98.731088335773549
aF98.714820237514232
aF98.812428827070121
aF98.812428827070121
aF98.76362453229217
aF98.714820237514232
aF98.779892630551487
aF98.796160728810804
aF98.698552139254929
aF98.714820237514232
aF98.76362453229217
aF98.812428827070121
aF98.796160728810804
aF98.714820237514232
aF98.76362453229217
aF98.910037416625997
aF98.812428827070121
aF98.926305514885314
aF98.682284040995611
aF98.893769318366679
aF98.877501220107362
aF98.714820237514232
aF98.893769318366679
aF98.926305514885314
aF98.861233121848059
aF98.76362453229217
aF98.828696925329425
aF98.844965023588742
aF98.942573613144617
aF98.926305514885314
aF98.991377907922555
aF98.828696925329425
aF98.861233121848059
aF98.991377907922555
aF98.844965023588742
aF98.893769318366679
aF98.975109809663252
aF98.975109809663252
aF98.991377907922555
aF98.942573613144617
aF98.991377907922555
aF98.975109809663252
aF98.975109809663252
aF98.958841711403934
aF99.007646006181886
aF98.958841711403934
aF98.926305514885314
aF99.007646006181886
aF98.991377907922555
aF99.007646006181886
aF98.958841711403934
aF98.991377907922555
aF98.958841711403934
aF98.975109809663252
aF98.975109809663252
aF99.007646006181886
aF98.958841711403934
aF98.958841711403934
aF98.910037416625997
aF98.747356434032866
aF98.991377907922555
aF98.779892630551487
aF98.877501220107362
aF98.812428827070121
aF98.535871156661798
aF98.812428827070121
aF98.828696925329425
aF98.975109809663252
aF98.942573613144617
aF98.861233121848059
aF98.861233121848059
aF98.779892630551487
aF98.942573613144617
aF98.731088335773549
aF98.975109809663252
aF98.861233121848059
aF98.958841711403934
aF98.910037416625997
aF99.007646006181886
aF98.861233121848059
aF98.877501220107362
aF98.828696925329425
aF98.991377907922555
aF98.910037416625997
aF98.682284040995611
aF98.910037416625997
aF98.76362453229217
aF98.975109809663252
aF98.844965023588742
aF98.747356434032866
aF98.828696925329425
aF98.796160728810804
aF98.861233121848059
aF98.893769318366679
aF98.991377907922555
aF98.991377907922555
aF98.812428827070121
aF98.828696925329425
aF98.893769318366679
aF98.910037416625997
aF98.487066861883847
aF98.666015942736294
aF98.714820237514232
aF98.698552139254929
aF98.405726370587274
aF98.373190174068654
aF98.861233121848059
aF98.779892630551487
aF98.910037416625997
aF98.877501220107362
aF98.942573613144617
aF98.844965023588742
aF98.910037416625997
aF98.958841711403934
aF98.828696925329425
aF98.861233121848059
aF98.76362453229217
aF98.926305514885314
aF98.779892630551487
aF98.844965023588742
aF98.487066861883847
aF98.747356434032866
aF98.926305514885314
aF98.877501220107362
aF98.714820237514232
aF98.893769318366679
aF98.877501220107362
aF98.910037416625997
aF98.910037416625997
aF98.796160728810804
aF98.584675451439736
aF98.682284040995611
aF98.747356434032866
aF98.844965023588742
aF98.861233121848059
aF98.893769318366679
aF98.747356434032866
aF98.76362453229217
aF98.828696925329425
aF98.828696925329425
aF98.926305514885314
aF98.926305514885314
aF98.308117781031399
aF98.910037416625997
aF98.682284040995611
aF98.796160728810804
aF98.828696925329425
aF98.861233121848059
aF98.910037416625997
aF98.926305514885314
aF98.796160728810804
aF98.910037416625997
aF98.958841711403934
aF99.023914104441189
aF99.007646006181886
aF99.040182202700493
aF98.942573613144617
aF98.958841711403934
aF98.666015942736294
aF98.910037416625997
aF98.991377907922555
aF98.926305514885314
aF99.072718399219127
aF99.023914104441189
aF99.007646006181886
aF98.910037416625997
aF99.040182202700493
aF99.088986497478444
aF99.040182202700493
aF99.056450300959824
aF99.023914104441189
aF99.040182202700493
aF98.926305514885314
aF99.040182202700493
aF99.056450300959824
aF98.958841711403934
aF99.072718399219127
aF99.056450300959824
aF99.056450300959824
aF99.088986497478444
aF99.056450300959824
aF99.072718399219127
aF99.088986497478444
aF99.023914104441189
aF99.007646006181886
aF98.942573613144617
aF99.072718399219127
aF99.056450300959824
aF98.958841711403934
aF98.910037416625997
aF99.072718399219127
aF99.040182202700493
aF98.958841711403934
aF99.040182202700493
aF98.861233121848059
aF98.747356434032866
aF98.861233121848059
aF98.975109809663252
aF98.600943549699039
aF98.552139254921101
aF98.617211647958356
aF98.958841711403934
aF98.975109809663252
aF98.991377907922555
aF99.072718399219127
aF99.137790792256382
aF99.072718399219127
aF98.828696925329425
aF98.893769318366679
aF99.088986497478444
aF99.072718399219127
aF99.121522693997079
aF99.105254595737762
aF99.088986497478444
aF99.007646006181886
aF98.877501220107362
aF99.088986497478444
aF99.121522693997079
aF98.877501220107362
aF98.910037416625997
aF98.975109809663252
aF98.942573613144617
aF99.056450300959824
aF99.088986497478444
aF98.877501220107362
aF99.023914104441189
aF98.519603058402467
aF98.877501220107362
aF98.519603058402467
aF98.926305514885314
aF98.926305514885314
aF98.812428827070121
aF99.056450300959824
aF98.584675451439736
aF99.007646006181886
aF99.154058890515699
aF98.877501220107362
aF99.121522693997079
aF99.007646006181886
aF98.796160728810804
aF98.991377907922555
aF98.942573613144617
aF98.76362453229217
aF98.844965023588742
aF99.121522693997079
aF99.072718399219127
aF98.893769318366679
aF99.040182202700493
aF99.121522693997079
aF99.007646006181886
aF98.779892630551487
aF99.137790792256382
aF99.023914104441189
aF99.072718399219127
aF98.926305514885314
aF98.926305514885314
aF99.154058890515699
aF99.18659508703432
aF99.154058890515699
aF99.170326988775017
aF99.154058890515699
aF99.088986497478444
aF99.154058890515699
aF99.18659508703432
aF99.154058890515699
aF99.170326988775017
aF99.137790792256382
aF99.18659508703432
aF99.121522693997079
aF99.18659508703432
aF99.170326988775017
aF99.202863185293637
aF99.18659508703432
aF99.235399381812258
aF99.154058890515699
aF99.202863185293637
aF99.18659508703432
aF99.202863185293637
aF99.072718399219127
aF98.942573613144617
aF99.137790792256382
aF99.202863185293637
aF99.18659508703432
aF99.072718399219127
aF98.991377907922555
aF99.137790792256382
aF99.219131283552954
aF99.170326988775017
aF99.056450300959824
aF99.202863185293637
aF99.154058890515699
aF99.121522693997079
aF99.137790792256382
aF99.202863185293637
aF99.202863185293637
aF99.170326988775017
aF99.105254595737762
aF99.170326988775017
aF99.18659508703432
aF99.219131283552954
aF99.18659508703432
aF98.649747844476977
aF98.958841711403934
aF99.007646006181886
aF98.926305514885314
aF98.731088335773549
aF98.568407353180405
aF98.828696925329425
aF98.779892630551487
aF99.040182202700493
aF98.893769318366679
aF99.040182202700493
aF98.877501220107362
aF98.942573613144617
aF98.910037416625997
aF98.828696925329425
aF99.040182202700493
aF98.975109809663252
aF99.088986497478444
aF99.154058890515699
aF99.154058890515699
aF98.828696925329425
aF99.007646006181886
aF99.072718399219127
aF99.170326988775017
aF98.975109809663252
aF98.682284040995611
aF98.975109809663252
aF99.088986497478444
aF99.040182202700493
aF98.844965023588742
aF99.137790792256382
aF99.023914104441189
aF99.072718399219127
aF99.040182202700493
aF99.040182202700493
aF99.072718399219127
aF99.105254595737762
aF99.121522693997079
aF98.958841711403934
aF98.649747844476977
aF99.040182202700493
aF99.088986497478444
aF99.121522693997079
aF99.18659508703432
aF99.18659508703432
aF99.170326988775017
aF99.18659508703432
aF99.170326988775017
aF99.219131283552954
aF99.154058890515699
aF99.137790792256382
aF98.893769318366679
aF98.779892630551487
aF98.942573613144617
aF99.170326988775017
aF99.18659508703432
aF99.056450300959824
aF99.088986497478444
aF98.942573613144617
aF99.023914104441189
aF99.056450300959824
aF99.072718399219127
aF98.633479746217674
aF98.926305514885314
aF99.154058890515699
aF99.154058890515699
aF99.072718399219127
aF99.072718399219127
aF99.154058890515699
aF99.170326988775017
aF99.18659508703432
aF99.202863185293637
aF99.088986497478444
aF99.18659508703432
aF99.202863185293637
aF99.202863185293637
aF99.170326988775017
aF99.154058890515699
aF99.202863185293637
aF99.088986497478444
aF99.154058890515699
aF99.154058890515699
aF99.170326988775017
aF99.023914104441189
aF99.040182202700493
aF98.991377907922555
aF98.975109809663252
aF99.023914104441189
aF98.942573613144617
aF99.105254595737762
aF98.991377907922555
aF99.137790792256382
aF99.18659508703432
aF99.105254595737762
aF98.910037416625997
aF98.991377907922555
aF99.170326988775017
aF99.023914104441189
aF99.154058890515699
aF99.170326988775017
aF99.18659508703432
aF98.926305514885314
aF98.975109809663252
aF99.154058890515699
aF99.007646006181886
aF98.828696925329425
aF98.844965023588742
aF99.121522693997079
aF99.202863185293637
aF99.18659508703432
aF99.072718399219127
aF98.958841711403934
aF99.18659508703432
aF99.170326988775017
aF99.154058890515699
aF99.121522693997079
aF98.747356434032866
aF99.007646006181886
aF98.991377907922555
aF98.812428827070121
aF99.040182202700493
aF99.072718399219127
aF99.154058890515699
aF99.137790792256382
aF99.088986497478444
aF99.105254595737762
aF99.170326988775017
aF99.202863185293637
aF99.137790792256382
aF99.219131283552954
aF99.18659508703432
aF99.219131283552954
aF99.170326988775017
aF99.202863185293637
aF99.202863185293637
aF99.088986497478444
aF99.072718399219127
aF99.170326988775017
aF98.942573613144617
aF99.105254595737762
aF99.154058890515699
aF99.202863185293637
aF99.18659508703432
aF99.202863185293637
aF99.202863185293637
aF99.137790792256382
aF99.202863185293637
aF99.235399381812258
aF99.202863185293637
aF99.105254595737762
aF99.202863185293637
aF99.235399381812258
aF99.040182202700493
aF99.235399381812258
aF99.202863185293637
aF99.219131283552954
aF98.942573613144617
aF99.235399381812258
aF99.202863185293637
aF99.251667480071575
aF99.105254595737762
aF99.137790792256382
aF99.072718399219127
aF98.828696925329425
aF99.170326988775017
aF99.105254595737762
aF99.18659508703432
aF98.991377907922555
aF99.088986497478444
aF99.056450300959824
aF99.137790792256382
aF99.121522693997079
aF99.072718399219127
aF99.137790792256382
aF99.040182202700493
aF99.137790792256382
aF99.088986497478444
aF99.056450300959824
aF99.056450300959824
aF99.105254595737762
aF99.023914104441189
aF99.121522693997079
aF99.121522693997079
aF98.975109809663252
aF99.137790792256382
aF99.088986497478444
aF99.088986497478444
aF99.121522693997079
aF99.056450300959824
aF99.170326988775017
aF99.056450300959824
aF99.121522693997079
aF99.170326988775017
aF99.18659508703432
aF99.202863185293637
aF99.18659508703432
aF99.18659508703432
aF99.18659508703432
aF99.170326988775017
aF99.202863185293637
aF99.219131283552954
aF99.235399381812258
aF99.219131283552954
aF99.202863185293637
aF99.202863185293637
aF99.18659508703432
aF99.219131283552954
aF99.251667480071575
aF98.861233121848059
aF99.056450300959824
aF99.202863185293637
aF99.18659508703432
aF99.202863185293637
aF98.975109809663252
aF99.056450300959824
aF99.072718399219127
aF99.105254595737762
aF99.137790792256382
aF99.121522693997079
aF98.844965023588742
aF98.910037416625997
aF99.072718399219127
aF99.137790792256382
aF99.007646006181886
aF99.154058890515699
aF99.219131283552954
aF98.877501220107362
aF99.007646006181886
aF99.202863185293637
aF99.088986497478444
aF99.105254595737762
aF98.975109809663252
aF99.056450300959824
aF99.202863185293637
aF99.154058890515699
aF99.121522693997079
aF99.040182202700493
aF98.861233121848059
aF99.137790792256382
aF99.056450300959824
aF99.072718399219127
aF99.121522693997079
aF98.991377907922555
aF98.958841711403934
aF99.040182202700493
aF98.828696925329425
aF98.812428827070121
aF98.844965023588742
aF98.861233121848059
aF98.958841711403934
aF99.040182202700493
aF98.649747844476977
aF99.056450300959824
aF98.861233121848059
aF98.617211647958356
aF98.958841711403934
aF98.975109809663252
aF98.666015942736294
aF99.040182202700493
aF99.056450300959824
aF99.251667480071575
aF99.18659508703432
aF99.235399381812258
aF99.202863185293637
aF99.284203676590209
aF99.202863185293637
aF99.202863185293637
aF99.072718399219127
aF99.170326988775017
aF99.154058890515699
aF99.121522693997079
aF98.975109809663252
aF99.072718399219127
aF99.170326988775017
aS'avg train'
p4
tp5
a((lp6
I0
aI1
aI2
aI3
aI4
aI5
aI6
aI7
aI8
aI9
aI10
aI11
aI12
aI13
aI14
aI15
aI16
aI17
aI18
aI19
aI20
aI21
aI22
aI23
aI24
aI25
aI26
aI27
aI28
aI29
aI30
aI31
aI32
aI33
aI34
aI35
aI36
aI37
aI38
aI39
aI40
aI41
aI42
aI43
aI44
aI45
aI46
aI47
aI48
aI49
aI50
aI51
aI52
aI53
aI54
aI55
aI56
aI57
aI58
aI59
aI60
aI61
aI62
aI63
aI64
aI65
aI66
aI67
aI68
aI69
aI70
aI71
aI72
aI73
aI74
aI75
aI76
aI77
aI78
aI79
aI80
aI81
aI82
aI83
aI84
aI85
aI86
aI87
aI88
aI89
aI90
aI91
aI92
aI93
aI94
aI95
aI96
aI97
aI98
aI99
aI100
aI101
aI102
aI103
aI104
aI105
aI106
aI107
aI108
aI109
aI110
aI111
aI112
aI113
aI114
aI115
aI116
aI117
aI118
aI119
aI120
aI121
aI122
aI123
aI124
aI125
aI126
aI127
aI128
aI129
aI130
aI131
aI132
aI133
aI134
aI135
aI136
aI137
aI138
aI139
aI140
aI141
aI142
aI143
aI144
aI145
aI146
aI147
aI148
aI149
aI150
aI151
aI152
aI153
aI154
aI155
aI156
aI157
aI158
aI159
aI160
aI161
aI162
aI163
aI164
aI165
aI166
aI167
aI168
aI169
aI170
aI171
aI172
aI173
aI174
aI175
aI176
aI177
aI178
aI179
aI180
aI181
aI182
aI183
aI184
aI185
aI186
aI187
aI188
aI189
aI190
aI191
aI192
aI193
aI194
aI195
aI196
aI197
aI198
aI199
aI200
aI201
aI202
aI203
aI204
aI205
aI206
aI207
aI208
aI209
aI210
aI211
aI212
aI213
aI214
aI215
aI216
aI217
aI218
aI219
aI220
aI221
aI222
aI223
aI224
aI225
aI226
aI227
aI228
aI229
aI230
aI231
aI232
aI233
aI234
aI235
aI236
aI237
aI238
aI239
aI240
aI241
aI242
aI243
aI244
aI245
aI246
aI247
aI248
aI249
aI250
aI251
aI252
aI253
aI254
aI255
aI256
aI257
aI258
aI259
aI260
aI261
aI262
aI263
aI264
aI265
aI266
aI267
aI268
aI269
aI270
aI271
aI272
aI273
aI274
aI275
aI276
aI277
aI278
aI279
aI280
aI281
aI282
aI283
aI284
aI285
aI286
aI287
aI288
aI289
aI290
aI291
aI292
aI293
aI294
aI295
aI296
aI297
aI298
aI299
aI300
aI301
aI302
aI303
aI304
aI305
aI306
aI307
aI308
aI309
aI310
aI311
aI312
aI313
aI314
aI315
aI316
aI317
aI318
aI319
aI320
aI321
aI322
aI323
aI324
aI325
aI326
aI327
aI328
aI329
aI330
aI331
aI332
aI333
aI334
aI335
aI336
aI337
aI338
aI339
aI340
aI341
aI342
aI343
aI344
aI345
aI346
aI347
aI348
aI349
aI350
aI351
aI352
aI353
aI354
aI355
aI356
aI357
aI358
aI359
aI360
aI361
aI362
aI363
aI364
aI365
aI366
aI367
aI368
aI369
aI370
aI371
aI372
aI373
aI374
aI375
aI376
aI377
aI378
aI379
aI380
aI381
aI382
aI383
aI384
aI385
aI386
aI387
aI388
aI389
aI390
aI391
aI392
aI393
aI394
aI395
aI396
aI397
aI398
aI399
aI400
aI401
aI402
aI403
aI404
aI405
aI406
aI407
aI408
aI409
aI410
aI411
aI412
aI413
aI414
aI415
aI416
aI417
aI418
aI419
aI420
aI421
aI422
aI423
aI424
aI425
aI426
aI427
aI428
aI429
aI430
aI431
aI432
aI433
aI434
aI435
aI436
aI437
aI438
aI439
aI440
aI441
aI442
aI443
aI444
aI445
aI446
aI447
aI448
aI449
aI450
aI451
aI452
aI453
aI454
aI455
aI456
aI457
aI458
aI459
aI460
aI461
aI462
aI463
aI464
aI465
aI466
aI467
aI468
aI469
aI470
aI471
aI472
aI473
aI474
aI475
aI476
aI477
aI478
aI479
aI480
aI481
aI482
aI483
aI484
aI485
aI486
aI487
aI488
aI489
aI490
aI491
aI492
aI493
aI494
aI495
aI496
aI497
aI498
aI499
aI500
aI501
aI502
aI503
aI504
aI505
aI506
aI507
aI508
aI509
aI510
aI511
aI512
aI513
aI514
aI515
aI516
aI517
aI518
aI519
aI520
aI521
aI522
aI523
aI524
aI525
aI526
aI527
aI528
aI529
aI530
aI531
aI532
aI533
aI534
aI535
aI536
aI537
aI538
aI539
aI540
aI541
aI542
aI543
aI544
aI545
aI546
aI547
aI548
aI549
aI550
aI551
aI552
aI553
aI554
aI555
aI556
aI557
aI558
aI559
aI560
aI561
aI562
aI563
aI564
aI565
aI566
aI567
aI568
aI569
aI570
aI571
aI572
aI573
aI574
aI575
aI576
aI577
aI578
aI579
aI580
aI581
aI582
aI583
aI584
aI585
aI586
aI587
aI588
aI589
aI590
aI591
aI592
aI593
aI594
aI595
aI596
aI597
aI598
aI599
aI600
aI601
aI602
aI603
aI604
aI605
aI606
aI607
aI608
aI609
aI610
aI611
aI612
aI613
aI614
aI615
aI616
aI617
aI618
aI619
aI620
aI621
aI622
aI623
aI624
aI625
aI626
aI627
aI628
aI629
aI630
aI631
aI632
aI633
aI634
aI635
aI636
aI637
aI638
aI639
aI640
aI641
aI642
aI643
aI644
aI645
aI646
aI647
aI648
aI649
aI650
aI651
aI652
aI653
aI654
aI655
aI656
aI657
aI658
aI659
aI660
aI661
aI662
aI663
aI664
aI665
aI666
aI667
aI668
aI669
aI670
aI671
aI672
aI673
aI674
aI675
aI676
aI677
aI678
aI679
aI680
aI681
aI682
aI683
aI684
aI685
aI686
aI687
aI688
aI689
aI690
aI691
aI692
aI693
aI694
aI695
aI696
aI697
aI698
aI699
aI700
aI701
aI702
aI703
aI704
aI705
aI706
aI707
aI708
aI709
aI710
aI711
aI712
aI713
aI714
aI715
aI716
aI717
aI718
aI719
aI720
aI721
aI722
aI723
aI724
aI725
aI726
aI727
aI728
aI729
aI730
aI731
aI732
aI733
aI734
aI735
aI736
aI737
aI738
aI739
aI740
aI741
aI742
aI743
aI744
aI745
aI746
aI747
aI748
aI749
aI750
aI751
aI752
aI753
aI754
aI755
aI756
aI757
aI758
aI759
aI760
aI761
aI762
aI763
aI764
aI765
aI766
aI767
aI768
aI769
aI770
aI771
aI772
aI773
aI774
aI775
aI776
aI777
aI778
aI779
aI780
aI781
aI782
aI783
aI784
aI785
aI786
aI787
aI788
aI789
aI790
aI791
aI792
aI793
aI794
aI795
aI796
aI797
aI798
aI799
aI800
aI801
aI802
aI803
aI804
aI805
aI806
aI807
aI808
aI809
aI810
aI811
aI812
aI813
aI814
aI815
aI816
aI817
aI818
aI819
aI820
aI821
aI822
aI823
aI824
aI825
aI826
aI827
aI828
aI829
aI830
aI831
aI832
aI833
aI834
aI835
aI836
aI837
aI838
aI839
aI840
aI841
aI842
aI843
aI844
aI845
aI846
aI847
aI848
aI849
aI850
aI851
aI852
aI853
aI854
aI855
aI856
aI857
aI858
aI859
aI860
aI861
aI862
aI863
aI864
aI865
aI866
aI867
aI868
aI869
aI870
aI871
aI872
aI873
aI874
aI875
aI876
aI877
aI878
aI879
aI880
aI881
aI882
aI883
aI884
aI885
aI886
aI887
aI888
aI889
aI890
aI891
aI892
aI893
aI894
aI895
aI896
aI897
aI898
aI899
aI900
aI901
aI902
aI903
aI904
aI905
aI906
aI907
aI908
aI909
aI910
aI911
aI912
aI913
aI914
aI915
aI916
aI917
aI918
aI919
aI920
aI921
aI922
aI923
aI924
aI925
aI926
aI927
aI928
aI929
aI930
aI931
aI932
aI933
aI934
aI935
aI936
aI937
aI938
aI939
aI940
aI941
aI942
aI943
aI944
aI945
aI946
aI947
aI948
aI949
aI950
aI951
aI952
aI953
aI954
aI955
aI956
aI957
aI958
aI959
aI960
aI961
aI962
aI963
aI964
aI965
aI966
aI967
aI968
aI969
aI970
aI971
aI972
aI973
aI974
aI975
aI976
aI977
aI978
aI979
aI980
aI981
aI982
aI983
aI984
aI985
aI986
aI987
aI988
aI989
aI990
aI991
aI992
aI993
aI994
aI995
aI996
aI997
aI998
aI999
a(lp7
F65.007320644216691
aF65.007320644216691
aF65.007320644216691
aF68.374816983894576
aF82.869692532942892
aF94.875549048316259
aF93.411420204978029
aF94.143484626647151
aF94.436310395314791
aF94.582723279648604
aF93.704245973645683
aF93.265007320644216
aF91.947291361639827
aF92.825768667642748
aF93.997071742313324
aF94.582723279648604
aF94.582723279648604
aF94.729136163982432
aF94.875549048316259
aF95.021961932650072
aF95.168374816983885
aF95.314787701317712
aF95.75402635431918
aF95.900439238653007
aF95.900439238653007
aF96.04685212298682
aF96.193265007320647
aF96.33967789165446
aF96.632503660322115
aF96.632503660322115
aF96.632503660322115
aF96.778916544655942
aF96.778916544655942
aF96.778916544655942
aF96.778916544655942
aF96.925329428989755
aF96.925329428989755
aF96.925329428989755
aF96.925329428989755
aF96.925329428989755
aF96.925329428989755
aF96.925329428989755
aF96.925329428989755
aF96.925329428989755
aF96.925329428989755
aF96.925329428989755
aF96.925329428989755
aF96.925329428989755
aF96.925329428989755
aF96.925329428989755
aF96.925329428989755
aF96.925329428989755
aF96.925329428989755
aF96.925329428989755
aF96.778916544655942
aF96.778916544655942
aF96.778916544655942
aF96.778916544655942
aF96.778916544655942
aF96.778916544655942
aF96.778916544655942
aF96.778916544655942
aF96.778916544655942
aF96.632503660322115
aF96.632503660322115
aF96.632503660322115
aF96.632503660322115
aF96.632503660322115
aF96.632503660322115
aF96.632503660322115
aF96.486090775988288
aF96.486090775988288
aF96.486090775988288
aF96.486090775988288
aF96.486090775988288
aF96.486090775988288
aF96.33967789165446
aF96.33967789165446
aF96.33967789165446
aF96.193265007320647
aF96.193265007320647
aF96.193265007320647
aF96.193265007320647
aF96.193265007320647
aF96.193265007320647
aF96.193265007320647
aF96.193265007320647
aF96.193265007320647
aF96.193265007320647
aF96.193265007320647
aF96.193265007320647
aF96.193265007320647
aF96.193265007320647
aF96.193265007320647
aF96.193265007320647
aF96.193265007320647
aF96.193265007320647
aF96.193265007320647
aF96.193265007320647
aF96.193265007320647
aF96.193265007320647
aF96.193265007320647
aF96.193265007320647
aF96.193265007320647
aF96.193265007320647
aF96.193265007320647
aF96.04685212298682
aF96.04685212298682
aF96.04685212298682
aF96.04685212298682
aF96.04685212298682
aF96.04685212298682
aF96.04685212298682
aF96.04685212298682
aF96.04685212298682
aF96.04685212298682
aF96.04685212298682
aF96.04685212298682
aF96.04685212298682
aF96.04685212298682
aF96.04685212298682
aF96.04685212298682
aF96.04685212298682
aF96.04685212298682
aF96.04685212298682
aF96.04685212298682
aF96.04685212298682
aF96.04685212298682
aF96.04685212298682
aF96.193265007320647
aF96.04685212298682
aF95.900439238653007
aF96.193265007320647
aF96.193265007320647
aF96.193265007320647
aF96.04685212298682
aF95.900439238653007
aF96.04685212298682
aF96.04685212298682
aF96.04685212298682
aF96.04685212298682
aF96.193265007320647
aF96.04685212298682
aF95.900439238653007
aF96.04685212298682
aF96.193265007320647
aF96.193265007320647
aF95.900439238653007
aF96.04685212298682
aF96.04685212298682
aF96.04685212298682
aF96.04685212298682
aF95.900439238653007
aF95.900439238653007
aF96.04685212298682
aF96.04685212298682
aF95.900439238653007
aF95.900439238653007
aF95.75402635431918
aF95.607613469985367
aF95.75402635431918
aF95.75402635431918
aF95.607613469985367
aF95.75402635431918
aF95.607613469985367
aF95.75402635431918
aF95.75402635431918
aF95.607613469985367
aF95.900439238653007
aF95.607613469985367
aF95.607613469985367
aF95.900439238653007
aF95.607613469985367
aF95.46120058565154
aF95.607613469985367
aF95.75402635431918
aF95.75402635431918
aF96.04685212298682
aF95.900439238653007
aF95.900439238653007
aF95.900439238653007
aF95.900439238653007
aF96.193265007320647
aF96.04685212298682
aF95.900439238653007
aF96.04685212298682
aF96.193265007320647
aF95.900439238653007
aF95.900439238653007
aF96.04685212298682
aF95.900439238653007
aF95.900439238653007
aF96.04685212298682
aF96.04685212298682
aF95.900439238653007
aF95.900439238653007
aF95.75402635431918
aF95.75402635431918
aF95.75402635431918
aF95.75402635431918
aF95.75402635431918
aF95.75402635431918
aF95.75402635431918
aF95.75402635431918
aF95.75402635431918
aF95.75402635431918
aF95.75402635431918
aF95.75402635431918
aF95.75402635431918
aF95.75402635431918
aF95.75402635431918
aF95.75402635431918
aF95.75402635431918
aF95.75402635431918
aF95.607613469985367
aF95.75402635431918
aF95.607613469985367
aF95.75402635431918
aF95.75402635431918
aF95.607613469985367
aF95.607613469985367
aF95.607613469985367
aF95.46120058565154
aF95.607613469985367
aF95.607613469985367
aF95.607613469985367
aF95.607613469985367
aF95.607613469985367
aF95.607613469985367
aF95.607613469985367
aF95.607613469985367
aF95.46120058565154
aF95.314787701317712
aF95.607613469985367
aF95.75402635431918
aF95.75402635431918
aF95.607613469985367
aF95.607613469985367
aF95.607613469985367
aF95.46120058565154
aF95.75402635431918
aF95.75402635431918
aF95.46120058565154
aF95.46120058565154
aF95.607613469985367
aF95.75402635431918
aF95.46120058565154
aF95.607613469985367
aF95.900439238653007
aF95.46120058565154
aF95.75402635431918
aF95.75402635431918
aF95.607613469985367
aF95.900439238653007
aF95.900439238653007
aF95.900439238653007
aF95.75402635431918
aF95.900439238653007
aF95.900439238653007
aF95.900439238653007
aF95.75402635431918
aF95.75402635431918
aF95.75402635431918
aF95.900439238653007
aF95.900439238653007
aF95.900439238653007
aF95.900439238653007
aF95.900439238653007
aF95.75402635431918
aF95.607613469985367
aF95.75402635431918
aF95.75402635431918
aF95.900439238653007
aF95.75402635431918
aF95.75402635431918
aF95.900439238653007
aF95.75402635431918
aF95.75402635431918
aF96.04685212298682
aF95.900439238653007
aF95.900439238653007
aF96.04685212298682
aF95.75402635431918
aF95.900439238653007
aF96.04685212298682
aF96.193265007320647
aF95.900439238653007
aF96.33967789165446
aF96.04685212298682
aF96.04685212298682
aF96.04685212298682
aF96.193265007320647
aF96.04685212298682
aF96.193265007320647
aF96.04685212298682
aF95.900439238653007
aF95.900439238653007
aF95.900439238653007
aF95.75402635431918
aF96.04685212298682
aF95.75402635431918
aF95.75402635431918
aF95.900439238653007
aF95.75402635431918
aF95.900439238653007
aF95.900439238653007
aF95.900439238653007
aF96.04685212298682
aF95.900439238653007
aF95.900439238653007
aF95.900439238653007
aF95.900439238653007
aF95.900439238653007
aF95.75402635431918
aF95.900439238653007
aF96.193265007320647
aF96.04685212298682
aF95.75402635431918
aF96.193265007320647
aF95.900439238653007
aF95.900439238653007
aF96.04685212298682
aF95.900439238653007
aF95.900439238653007
aF96.04685212298682
aF95.75402635431918
aF96.04685212298682
aF96.04685212298682
aF96.04685212298682
aF95.75402635431918
aF95.75402635431918
aF95.75402635431918
aF95.75402635431918
aF95.900439238653007
aF96.04685212298682
aF95.607613469985367
aF95.46120058565154
aF95.607613469985367
aF95.607613469985367
aF95.900439238653007
aF95.900439238653007
aF95.900439238653007
aF95.607613469985367
aF95.607613469985367
aF95.900439238653007
aF95.607613469985367
aF95.607613469985367
aF95.607613469985367
aF95.46120058565154
aF95.607613469985367
aF95.607613469985367
aF95.46120058565154
aF95.607613469985367
aF95.46120058565154
aF95.46120058565154
aF95.607613469985367
aF95.46120058565154
aF95.607613469985367
aF95.607613469985367
aF95.607613469985367
aF95.46120058565154
aF95.46120058565154
aF95.314787701317712
aF95.314787701317712
aF95.314787701317712
aF95.46120058565154
aF95.314787701317712
aF95.46120058565154
aF95.46120058565154
aF95.314787701317712
aF95.314787701317712
aF95.314787701317712
aF95.021961932650072
aF95.314787701317712
aF95.168374816983885
aF95.021961932650072
aF95.168374816983885
aF95.021961932650072
aF95.314787701317712
aF95.314787701317712
aF95.314787701317712
aF95.168374816983885
aF95.314787701317712
aF95.168374816983885
aF95.168374816983885
aF95.168374816983885
aF95.168374816983885
aF95.021961932650072
aF95.021961932650072
aF95.021961932650072
aF94.875549048316259
aF94.875549048316259
aF94.875549048316259
aF94.875549048316259
aF94.875549048316259
aF94.875549048316259
aF94.875549048316259
aF94.875549048316259
aF94.729136163982432
aF94.729136163982432
aF95.021961932650072
aF95.021961932650072
aF95.021961932650072
aF95.021961932650072
aF95.168374816983885
aF95.168374816983885
aF95.168374816983885
aF95.168374816983885
aF95.168374816983885
aF95.021961932650072
aF95.021961932650072
aF95.168374816983885
aF95.021961932650072
aF95.021961932650072
aF95.021961932650072
aF94.729136163982432
aF94.729136163982432
aF94.875549048316259
aF94.729136163982432
aF94.875549048316259
aF94.729136163982432
aF94.875549048316259
aF94.875549048316259
aF94.729136163982432
aF95.021961932650072
aF94.582723279648604
aF95.021961932650072
aF95.021961932650072
aF95.021961932650072
aF95.021961932650072
aF95.021961932650072
aF95.021961932650072
aF95.021961932650072
aF95.021961932650072
aF95.021961932650072
aF95.021961932650072
aF95.021961932650072
aF95.168374816983885
aF95.168374816983885
aF95.021961932650072
aF95.168374816983885
aF95.168374816983885
aF95.168374816983885
aF95.168374816983885
aF95.021961932650072
aF95.168374816983885
aF95.168374816983885
aF95.168374816983885
aF95.168374816983885
aF95.021961932650072
aF95.168374816983885
aF95.021961932650072
aF95.168374816983885
aF95.168374816983885
aF95.021961932650072
aF95.168374816983885
aF95.021961932650072
aF95.021961932650072
aF95.021961932650072
aF95.021961932650072
aF94.875549048316259
aF94.875549048316259
aF94.875549048316259
aF94.875549048316259
aF94.875549048316259
aF94.875549048316259
aF95.021961932650072
aF94.875549048316259
aF94.875549048316259
aF95.021961932650072
aF95.021961932650072
aF94.875549048316259
aF95.021961932650072
aF94.875549048316259
aF95.021961932650072
aF94.875549048316259
aF94.729136163982432
aF94.729136163982432
aF94.729136163982432
aF94.875549048316259
aF95.021961932650072
aF95.021961932650072
aF95.021961932650072
aF95.021961932650072
aF95.314787701317712
aF95.314787701317712
aF95.314787701317712
aF95.46120058565154
aF95.46120058565154
aF95.46120058565154
aF95.46120058565154
aF95.46120058565154
aF95.168374816983885
aF95.168374816983885
aF95.168374816983885
aF95.314787701317712
aF95.021961932650072
aF95.168374816983885
aF95.314787701317712
aF95.168374816983885
aF95.168374816983885
aF95.168374816983885
aF95.168374816983885
aF95.168374816983885
aF95.168374816983885
aF95.314787701317712
aF95.021961932650072
aF95.168374816983885
aF95.314787701317712
aF95.168374816983885
aF95.314787701317712
aF95.314787701317712
aF95.314787701317712
aF95.46120058565154
aF95.314787701317712
aF95.46120058565154
aF95.46120058565154
aF95.168374816983885
aF95.607613469985367
aF95.314787701317712
aF95.314787701317712
aF95.607613469985367
aF95.46120058565154
aF95.314787701317712
aF95.314787701317712
aF95.46120058565154
aF95.900439238653007
aF95.46120058565154
aF95.46120058565154
aF95.021961932650072
aF95.314787701317712
aF95.75402635431918
aF95.314787701317712
aF95.314787701317712
aF95.021961932650072
aF95.168374816983885
aF95.168374816983885
aF95.168374816983885
aF95.168374816983885
aF95.168374816983885
aF95.021961932650072
aF95.021961932650072
aF94.875549048316259
aF95.168374816983885
aF95.314787701317712
aF95.314787701317712
aF95.168374816983885
aF95.021961932650072
aF95.021961932650072
aF95.314787701317712
aF95.168374816983885
aF95.168374816983885
aF95.314787701317712
aF95.168374816983885
aF95.314787701317712
aF95.607613469985367
aF95.314787701317712
aF95.314787701317712
aF95.314787701317712
aF95.314787701317712
aF95.46120058565154
aF95.168374816983885
aF95.168374816983885
aF95.314787701317712
aF95.46120058565154
aF95.314787701317712
aF95.168374816983885
aF95.75402635431918
aF95.607613469985367
aF95.607613469985367
aF95.607613469985367
aF95.314787701317712
aF95.46120058565154
aF95.46120058565154
aF95.168374816983885
aF95.314787701317712
aF95.607613469985367
aF95.46120058565154
aF95.314787701317712
aF95.314787701317712
aF95.607613469985367
aF95.607613469985367
aF95.46120058565154
aF95.607613469985367
aF95.168374816983885
aF95.314787701317712
aF95.314787701317712
aF94.875549048316259
aF95.314787701317712
aF95.168374816983885
aF95.168374816983885
aF95.021961932650072
aF94.875549048316259
aF95.168374816983885
aF95.168374816983885
aF95.314787701317712
aF95.168374816983885
aF95.607613469985367
aF95.168374816983885
aF95.168374816983885
aF94.875549048316259
aF95.46120058565154
aF95.46120058565154
aF95.021961932650072
aF95.021961932650072
aF95.168374816983885
aF95.46120058565154
aF95.46120058565154
aF95.168374816983885
aF95.021961932650072
aF95.314787701317712
aF95.314787701317712
aF95.46120058565154
aF95.168374816983885
aF95.021961932650072
aF95.168374816983885
aF95.021961932650072
aF95.314787701317712
aF95.46120058565154
aF95.314787701317712
aF95.607613469985367
aF95.168374816983885
aF95.314787701317712
aF95.314787701317712
aF95.75402635431918
aF95.46120058565154
aF95.46120058565154
aF95.314787701317712
aF95.46120058565154
aF95.46120058565154
aF95.168374816983885
aF95.168374816983885
aF96.04685212298682
aF95.314787701317712
aF95.168374816983885
aF95.314787701317712
aF95.168374816983885
aF95.46120058565154
aF95.46120058565154
aF95.314787701317712
aF95.021961932650072
aF95.168374816983885
aF95.314787701317712
aF95.168374816983885
aF95.168374816983885
aF95.168374816983885
aF94.875549048316259
aF95.314787701317712
aF95.314787701317712
aF94.875549048316259
aF94.875549048316259
aF94.875549048316259
aF94.875549048316259
aF94.875549048316259
aF95.021961932650072
aF95.021961932650072
aF94.875549048316259
aF95.021961932650072
aF95.168374816983885
aF94.875549048316259
aF95.021961932650072
aF95.021961932650072
aF95.168374816983885
aF95.314787701317712
aF95.168374816983885
aF95.46120058565154
aF95.314787701317712
aF95.314787701317712
aF95.314787701317712
aF95.46120058565154
aF95.168374816983885
aF95.75402635431918
aF95.607613469985367
aF95.314787701317712
aF95.46120058565154
aF94.875549048316259
aF95.46120058565154
aF95.168374816983885
aF95.46120058565154
aF95.021961932650072
aF95.021961932650072
aF95.314787701317712
aF95.46120058565154
aF95.168374816983885
aF95.314787701317712
aF95.021961932650072
aF95.168374816983885
aF95.168374816983885
aF95.46120058565154
aF95.021961932650072
aF95.46120058565154
aF95.021961932650072
aF95.168374816983885
aF95.314787701317712
aF95.314787701317712
aF95.168374816983885
aF95.314787701317712
aF95.021961932650072
aF95.168374816983885
aF95.168374816983885
aF95.314787701317712
aF95.021961932650072
aF95.168374816983885
aF95.168374816983885
aF95.021961932650072
aF94.875549048316259
aF95.168374816983885
aF95.021961932650072
aF95.607613469985367
aF95.314787701317712
aF95.46120058565154
aF95.168374816983885
aF94.875549048316259
aF95.021961932650072
aF95.168374816983885
aF95.168374816983885
aF95.168374816983885
aF95.021961932650072
aF95.021961932650072
aF95.021961932650072
aF95.021961932650072
aF95.314787701317712
aF95.168374816983885
aF95.021961932650072
aF95.021961932650072
aF94.875549048316259
aF94.582723279648604
aF95.314787701317712
aF94.729136163982432
aF95.168374816983885
aF95.314787701317712
aF95.168374816983885
aF95.021961932650072
aF95.168374816983885
aF95.021961932650072
aF95.168374816983885
aF95.021961932650072
aF94.875549048316259
aF95.168374816983885
aF95.021961932650072
aF94.875549048316259
aF95.021961932650072
aF95.314787701317712
aF94.875549048316259
aF95.021961932650072
aF95.168374816983885
aF94.875549048316259
aF95.021961932650072
aF95.021961932650072
aF94.875549048316259
aF95.021961932650072
aF95.168374816983885
aF94.875549048316259
aF95.168374816983885
aF95.021961932650072
aF95.021961932650072
aF95.021961932650072
aF95.021961932650072
aF94.729136163982432
aF94.729136163982432
aF95.314787701317712
aF95.021961932650072
aF94.875549048316259
aF94.875549048316259
aF94.875549048316259
aF94.729136163982432
aF95.168374816983885
aF95.021961932650072
aF94.875549048316259
aF94.729136163982432
aF94.875549048316259
aF94.875549048316259
aF95.314787701317712
aF94.582723279648604
aF94.875549048316259
aF95.314787701317712
aF95.021961932650072
aF95.021961932650072
aF95.168374816983885
aF94.875549048316259
aF95.021961932650072
aF94.729136163982432
aF95.168374816983885
aF95.021961932650072
aF94.875549048316259
aF94.729136163982432
aF95.168374816983885
aF94.729136163982432
aF94.582723279648604
aF94.875549048316259
aF94.875549048316259
aF95.021961932650072
aF95.021961932650072
aF95.021961932650072
aF95.021961932650072
aF94.875549048316259
aF94.729136163982432
aF94.875549048316259
aF95.021961932650072
aF95.021961932650072
aF94.875549048316259
aF95.168374816983885
aF95.168374816983885
aF94.875549048316259
aF95.168374816983885
aF95.168374816983885
aF95.168374816983885
aF95.168374816983885
aF95.168374816983885
aF94.875549048316259
aF95.021961932650072
aF95.168374816983885
aF95.021961932650072
aF94.875549048316259
aF95.314787701317712
aF94.729136163982432
aF94.729136163982432
aF94.875549048316259
aF94.875549048316259
aF94.875549048316259
aF95.021961932650072
aF95.168374816983885
aF95.314787701317712
aF95.168374816983885
aF94.875549048316259
aF94.875549048316259
aF94.875549048316259
aF94.875549048316259
aF94.875549048316259
aF94.729136163982432
aF94.875549048316259
aF94.875549048316259
aF94.875549048316259
aF94.875549048316259
aF94.582723279648604
aF94.729136163982432
aF94.729136163982432
aF95.021961932650072
aF94.875549048316259
aF95.021961932650072
aF94.875549048316259
aF94.729136163982432
aF94.875549048316259
aF94.875549048316259
aF95.021961932650072
aF94.875549048316259
aF95.314787701317712
aF95.021961932650072
aF94.875549048316259
aF95.021961932650072
aF95.168374816983885
aF95.021961932650072
aF95.021961932650072
aF94.875549048316259
aF95.021961932650072
aF94.875549048316259
aF95.168374816983885
aF95.021961932650072
aF95.021961932650072
aF95.021961932650072
aF94.875549048316259
aF95.021961932650072
aF94.729136163982432
aF94.875549048316259
aF95.168374816983885
aF94.875549048316259
aF94.875549048316259
aF95.168374816983885
aF94.875549048316259
aF95.168374816983885
aF95.021961932650072
aF95.021961932650072
aF94.875549048316259
aF95.021961932650072
aF94.875549048316259
aF94.729136163982432
aF94.875549048316259
aF95.314787701317712
aF95.021961932650072
aF95.021961932650072
aF94.875549048316259
aF95.168374816983885
aF94.875549048316259
aF95.021961932650072
aF95.314787701317712
aF95.021961932650072
aF95.021961932650072
aF95.168374816983885
aF95.168374816983885
aF94.729136163982432
aF95.314787701317712
aF95.168374816983885
aF95.168374816983885
aF95.168374816983885
aF94.875549048316259
aF95.021961932650072
aF95.168374816983885
aF95.168374816983885
aF95.168374816983885
aF94.875549048316259
aF95.168374816983885
aF95.021961932650072
aF94.875549048316259
aF95.168374816983885
aF95.168374816983885
aF95.021961932650072
aF95.46120058565154
aF95.168374816983885
aF95.168374816983885
aF95.168374816983885
aF95.021961932650072
aF95.314787701317712
aF94.729136163982432
aF95.314787701317712
aF95.314787701317712
aF95.314787701317712
aF95.168374816983885
aF95.021961932650072
aF95.168374816983885
aF95.168374816983885
aF95.021961932650072
aF95.021961932650072
aF95.021961932650072
aF95.168374816983885
aF95.168374816983885
aF95.168374816983885
aF95.168374816983885
aF95.168374816983885
aF95.168374816983885
aF95.021961932650072
aF95.168374816983885
aF95.021961932650072
aF95.021961932650072
aF94.875549048316259
aF95.021961932650072
aF95.314787701317712
aF94.875549048316259
aF94.875549048316259
aF94.875549048316259
aF95.021961932650072
aF94.875549048316259
aF95.021961932650072
aF95.168374816983885
aF95.314787701317712
aF95.168374816983885
aF95.314787701317712
aF95.021961932650072
aF95.314787701317712
aF95.021961932650072
aF95.021961932650072
aF95.168374816983885
aF95.168374816983885
aF95.021961932650072
aF94.875549048316259
aF95.168374816983885
aF95.021961932650072
aF95.021961932650072
aF95.314787701317712
aF94.875549048316259
aF95.021961932650072
aF95.021961932650072
aF94.875549048316259
aF95.021961932650072
aF95.021961932650072
aF94.875549048316259
aF95.021961932650072
aF95.021961932650072
aF95.021961932650072
aF95.168374816983885
aF95.021961932650072
aF95.46120058565154
aF95.168374816983885
aF95.46120058565154
aF95.314787701317712
aF95.46120058565154
aF95.314787701317712
aF95.021961932650072
aF95.021961932650072
aF95.168374816983885
aF95.168374816983885
aF94.875549048316259
aF94.875549048316259
aF95.021961932650072
aF95.168374816983885
aF95.168374816983885
aF94.875549048316259
aF94.875549048316259
aF95.021961932650072
aF95.168374816983885
aF95.314787701317712
aF95.314787701317712
aF94.875549048316259
aF94.875549048316259
aF94.875549048316259
aF94.875549048316259
aF95.021961932650072
aF95.168374816983885
aF94.875549048316259
aF95.314787701317712
aF95.314787701317712
aS'avg test'
p8
tp9
aS'breast cancers iterative accuracy from 1 to 10000 epochs on train and test'
p10
t.