((lp1
((lp2
F12.836814880371094
aF26.237535953521729
aF39.687384843826294
aF53.421902894973755
aF67.081605911254883
aF80.686773061752319
aF94.502135992050171
aF108.48568987846375
aF122.43841791152954
aF136.35852193832397
a(lp3
F65.0070618773142
aF68.242355994961258
aF74.76409512539604
aF67.801179524373026
aF77.448467381761276
aF68.050540138183763
aF80.790453105317397
aF77.562475347049912
aF90.398296242572314
aF83.782780471046294
aS'0 HL2 units'
p4
tp5
a((lp6
F17.423990964889526
aF35.874829053878784
aF54.38979697227478
aF72.963011980056763
aF91.559906005859375
aF110.22423791885376
aF129.02582788467407
aF147.91039705276489
aF166.71850800514221
aF185.60527396202087
a(lp7
F65.0070618773142
aF65.0070618773142
aF65.0070618773142
aF65.0070618773142
aF65.0070618773142
aF65.0070618773142
aF65.0070618773142
aF65.0070618773142
aF65.0070618773142
aF65.0070618773142
aS'1 HL2 units'
tp8
a((lp9
F203.85800504684448
aF222.87134695053101
aF242.14875984191895
aF261.47155404090881
aF280.7425479888916
aF300.33505392074585
aF319.80527400970459
aF339.18686699867249
aF358.63744282722473
aF378.78701996803284
a(lp10
F65.0070618773142
aF65.0070618773142
aF65.0070618773142
aF65.0070618773142
aF65.0070618773142
aF67.905612601951873
aF67.760685065719997
aF67.654120700843606
aF65.0070618773142
aF68.242355994961258
aS'2 HL2 units'
tp11
a((lp12
F396.92996501922607
aF416.06386995315552
aF435.60927391052246
aF454.8481969833374
aF474.2809100151062
aF493.62579798698425
aF512.77636194229126
aF532.0297520160675
aF549.48780989646912
aF566.9136278629303
a(lp13
F65.0070618773142
aF67.760685065719997
aF74.222748151823993
aF74.313471008130705
aF79.917547810818022
aF70.407743889249417
aF74.271767759667142
aF73.528966421091468
aF71.140906719598931
aF68.050540138183763
aS'3 HL2 units'
tp14
a((lp15
F583.05461883544922
aF600.06518483161926
aF617.20363402366638
aF634.47333884239197
aF652.25525689125061
aF669.51312685012817
aF687.43841505050659
aF704.90559697151184
aF722.44198298454285
aF740.12132883071899
a(lp16
F65.0070618773142
aF70.552671425481293
aF76.026771513277595
aF94.424043465536755
aF85.61447875710958
aF91.525556361415425
aF87.750982936977522
aF85.937321067297788
aF86.240218345612092
aF86.825049942105323
aS'4 HL2 units'
tp17
a((lp18
F756.21602988243103
aF773.22118902206421
aF790.73993802070618
aF807.88314986228943
aF825.0916268825531
aF842.3619978427887
aF859.64354205131531
aF877.09386301040649
aF894.50705194473267
aF911.9691698551178
a(lp19
F71.09401839905334
aF75.848920359837649
aF90.165795065592761
aF94.127794531180413
aF94.279179549821222
aF81.576707256556091
aF94.57329719688002
aF94.426238373350628
aF94.419780890941723
aF95.148681146696177
aS'5 HL2 units'
tp20
a((lp21
F928.24881291389465
aF945.7404420375824
aF962.99993395805359
aF980.81477403640747
aF1000.1837668418884
aF1019.4399838447571
aF1038.6402099132538
aF1057.799311876297
aF1077.0770180225372
aF1096.5428700447083
a(lp22
F67.760685065719997
aF89.01696759170899
aF87.599597918336684
aF93.403156850020991
aF89.771443295033791
aF90.798723772442131
aF94.57329719688002
aF94.865283556641344
aF94.568971001768645
aF95.008079805575704
aS'6 HL2 units'
tp23
a((lp24
F1114.9584269523621
aF1133.9210588932037
aF1153.0050618648529
aF1172.1666309833527
aF1191.2910530567169
aF1210.3583369255066
aF1229.6483299732208
aF1248.913388967514
aF1268.1788458824158
aF1287.4234499931335
a(lp25
F73.384038884859564
aF92.667862732373933
aF93.247509256785122
aF93.693011922484772
aF93.982866994948523
aF93.980735707651007
aF94.573297196880048
aF95.010274713389549
aF95.15513862910511
aF95.444993701568862
aS'7 HL2 units'
tp26
a((lp27
F1305.2434508800507
aF1324.1927189826965
aF1343.1903779506683
aF1362.3280458450317
aF1381.589231967926
aF1400.7700979709625
aF1420.0504460334778
aF1439.4057619571686
aF1459.0064990520477
aF1478.8575210571289
a(lp28
F70.256422491124937
aF91.938898856103123
aF93.835808171419131
aF93.543758191141478
aF93.693011922484772
aF94.57329719688002
aF94.426238373350628
aF94.421912178239239
aF94.417713224160522
aF94.72035602040944
aS'8 HL2 units'
tp29
a((lp30
F1497.7664108276367
aF1517.1159410476685
aF1536.9825580120087
aF1556.8073399066925
aF1576.1887209415436
aF1595.7545299530029
aF1617.3406479358673
aF1638.0843498706818
aF1660.1152498722076
aF1680.6167588233948
a(lp31
F74.62129887646168
aF92.827963761753907
aF92.821379038312259
aF93.693011922484772
aF93.844396941125567
aF94.134188393073003
aF95.008016185059347
aF95.30219745263453
aF94.861020982046284
aF95.445057322085219
aS'9 HL2 units'
tp32
a((lp33
F1698.7197909355164
aF1720.37459897995
aF1741.3211438655853
aF1761.2015469074249
aF1781.0312139987946
aF1800.8416440486908
aF1819.2960939407349
aF1837.7290859222412
aF1856.6550140380859
aF1875.7387928962708
a(lp34
F85.761537580639001
aF92.377944039393824
aF92.814857935386996
aF94.424043465536755
aF93.842265653828051
aF95.310913463373666
aF94.276984642007349
aF94.718224733111924
aF95.008079805575704
aF95.159464824216499
aS'10 HL2 units'
tp35
aS'breast cancers averages over 10 fold cross validation varying hidden units from 1 to 10, hidden layer = 2, epochs = 10 (with timings)'
p36
t.