(S'breast cancers averages over 10 fold cross validation varying hidden units from 1 to 10, hidden layer = 2, epochs = 100'
p1
(lp2
F65.0070618773142
aF65.0070618773142
aF65.0070618773142
aF68.389414818490678
aF72.510401954422264
aF70.0070618773142
aF68.195467674415639
aF70.58352737590819
aF70.94909086282145
aF77.495164840757852
aF65.0070618773142
aF65.0070618773142
aF67.905612601951873
aF82.711665457876848
aF74.082083190187177
aF89.726686261785716
aF87.576280999096596
aF88.269140232342124
aF91.936894809838265
aF91.054478248145458
aF65.0070618773142
aF65.0070618773142
aF73.929839294575729
aF84.181267575167638
aF92.955713758572855
aF89.430500947945688
aF91.932632235243233
aF91.934699902024391
aF91.785573411713813
aF91.054478248145486
aF65.0070618773142
aF68.095297171431838
aF76.721762033820667
aF85.169039711926288
aF89.876067234161695
aF92.810786222340965
aF92.81291750963851
aF93.102708961585932
aF92.806460027229576
aF92.962171240981775
aF65.0070618773142
aF65.0070618773142
aF70.993847896069525
aF91.191007876219913
aF87.804392360448375
aF90.204221857464589
aF93.686745301624867
aF92.957845045870386
aF93.838066699749334
aF93.982994235981209
aF65.0070618773142
aF65.0070618773142
aF70.846789072540119
aF88.504504332557161
aF91.485125523278754
aF93.982994235981209
aF92.670121260704136
aF93.985125523278754
aF93.978795281902507
aF94.27711188304005
aF65.0070618773142
aF65.0070618773142
aF77.018074588693366
aF85.940565713631329
aF94.279306790853923
aF94.863279510376515
aF94.711958112252034
aF94.716220686847095
aF95.008207046608391
aF94.277175503556393
aF65.0070618773142
aF65.0070618773142
aF68.53647364202007
aF83.495979183367069
aF91.821932536804468
aF91.670611138680016
aF94.859016935781455
aF95.592179766130997
aF94.865410797674045
aF95.153134582840281
aF65.0070618773142
aF68.195467674415653
aF74.175859831278402
aF92.062768001425098
aF94.86114822307897
aF92.220483261442155
aF95.300193406369686
aF94.716220686847095
aF95.445120942601577
aF95.155265870137811
aF65.0070618773142
aF65.0070618773142
aF73.738945935285216
aF80.838263923350013
aF91.919971752490753
aF95.302324693667231
aF95.592179766130982
aF95.590048478833467
aF95.300193406369686
aF95.298062119072171
at.