((lp1
F65.0070618773142
aF71.03647364202007
aF74.231273301014113
aF80.89940323955669
aF71.477650112608316
aF80.89727195225916
aF77.27048898728863
aF86.792412617220805
aF86.633234085327842
aF87.3685282029749
aF90.79923273657289
aF93.889599317988058
aF96.935208866155151
aF97.080136402387055
aF90.364450127877234
aS'breast cancers averages over 10 fold cross validation varying hidden units from 1 to 10, hidden layer = 1, epochs = 100'
p2
t.