((lp1
((lp2
F5.1333940029144287
aF10.450085163116455
aF15.794650077819824
aF21.132907152175903
aF26.499014139175415
aF31.911683082580566
aF37.369394063949585
aF42.872339010238647
aF48.393634080886841
aF53.958775043487549
a(lp3
F65.0070618773142
aF68.050540138183763
aF71.624708936137722
aF77.16519703273913
aF73.84045246911225
aF71.47472356885649
aF81.481912687203376
aF83.847641587459108
aF83.845510300161592
aF86.79094934534487
aS'0 HL2 units'
p4
tp5
a((lp6
F7.1473369598388672
aF14.496464967727661
aF21.876274824142456
aF29.288316011428833
aF36.739597797393799
aF44.220705986022949
aF51.753845930099487
aF59.317951917648315
aF66.917758941650391
aF74.561875820159912
a(lp7
F65.0070618773142
aF65.0070618773142
aF65.0070618773142
aF65.0070618773142
aF65.0070618773142
aF65.0070618773142
aF65.0070618773142
aF65.0070618773142
aF65.0070618773142
aF65.0070618773142
aS'1 HL2 units'
tp8
a((lp9
F7.3437838554382324
aF14.856488943099976
aF22.419128894805908
aF29.995867013931274
aF37.613875865936279
aF45.281008958816528
aF52.976224899291992
aF60.689852952957153
aF68.426295042037964
aF76.208695888519287
a(lp10
F65.0070618773142
aF65.0070618773142
aF65.0070618773142
aF65.0070618773142
aF65.0070618773142
aF67.470829993256217
aF65.0070618773142
aF68.389414818490678
aF65.0070618773142
aF65.0070618773142
aS'2 HL2 units'
tp11
a((lp12
F7.3680160045623779
aF14.878355026245117
aF22.475803852081299
aF30.110664844512939
aF37.763324975967407
aF45.453996896743774
aF53.174638032913208
aF60.961948871612549
aF68.75288200378418
aF76.591315031051636
a(lp13
F65.0070618773142
aF65.0070618773142
aF70.703992823605759
aF68.389414818490678
aF85.362000737998002
aF76.33059128907891
aF83.260742324184719
aF74.317860823758451
aF76.621718771869567
aF79.091753508671474
aS'3 HL2 units'
tp14
a((lp15
F7.3548130989074707
aF14.866508007049561
aF22.428160905838013
aF29.9897301197052
aF37.604672908782959
aF45.283786058425903
aF52.996105909347534
aF60.74181604385376
aF68.568864107131958
aF76.412601947784424
a(lp16
F65.0070618773142
aF82.320590143909612
aF83.81993485259126
aF84.889841075950173
aF91.311409703401154
aF85.75940629334147
aF79.479647796821524
aF86.782424196154778
aF92.572336527083252
aF85.992989019098886
aS'4 HL2 units'
tp17
a((lp18
F7.400378942489624
aF14.941129922866821
aF22.529812097549438
aF30.163268089294434
aF37.820027112960815
aF45.524023056030273
aF53.279052019119263
aF61.111301898956299
aF68.980617046356201
aF76.867827892303467
a(lp19
F69.789670572966358
aF76.150704279115942
aF87.237469939306038
aF93.705926887302624
aF93.558931684289561
aF95.319502233080115
aF93.002792940667504
aF91.694182539985476
aF95.468755964423408
aF95.758547416370845
aS'5 HL2 units'
tp20
a((lp21
F7.4564979076385498
aF15.072249889373779
aF22.740216016769409
aF30.441388845443726
aF38.191596984863281
aF45.961788892745972
aF53.776150941848755
aF61.613521814346313
aF69.493952989578247
aF77.40164589881897
a(lp22
F65.0070618773142
aF83.761340357038335
aF94.447805728391302
aF93.714515657009088
aF94.731139697929791
aF94.584080874400385
aF94.724809456553544
aF94.876130854678038
aF95.604967489916135
aF96.346846331004812
aS'6 HL2 units'
tp23
a((lp24
F7.4786109924316406
aF15.105100870132446
aF22.774055957794189
aF30.493875026702881
aF38.231881856918335
aF46.027328968048096
aF53.861681938171387
aF61.737780809402466
aF69.622066020965576
aF77.584089994430542
a(lp25
F70.409875176546933
aF85.451642045526853
aF93.266881704011922
aF93.705926887302624
aF94.292094514639089
aF94.145035691109655
aF95.754221221259428
aF95.457908666386714
aF95.02532096550496
aF95.90993243501164
aS'7 HL2 units'
tp26
a((lp27
F7.5103428363800049
aF15.171447992324829
aF22.859726905822754
aF30.589915990829468
aF38.362809896469116
aF46.181764841079712
aF54.03914999961853
aF61.931031942367554
aF69.850448846817017
aF77.81939697265625
a(lp28
F70.9333129747681
aF89.754583858202594
aF92.544375310150031
aF93.855180618645903
aF94.287831940044015
aF94.873935946864137
aF95.613683500655299
aF94.871804659566635
aF95.464366148795676
aF95.319438612563772
aS'8 HL2 units'
tp29
a((lp30
F7.5176360607147217
aF15.181818008422852
aF22.893170118331909
aF30.657058954238892
aF38.4706711769104
aF46.311697006225586
aF54.191797971725464
aF62.108903169631958
aF70.05473804473877
aF78.060058116912842
a(lp31
F70.559065287373883
aF93.279860289346118
aF93.269012991309438
aF93.413940527541328
aF94.140709495998266
aF94.731266938962477
aF95.609357305543881
aF95.319502233080129
aF95.615814787952814
aF95.762873611482235
aS'9 HL2 units'
tp32
a((lp33
F7.5467679500579834
aF15.255762815475464
aF23.002443790435791
aF30.845343828201294
aF38.702337980270386
aF46.605369806289673
aF54.521100997924805
aF62.466882944107056
aF70.465198993682861
aF78.479651927947998
a(lp34
F73.167760939547776
aF92.834166762097453
aF93.560999351070734
aF93.99791324706392
aF93.993650672468874
aF95.312981130154839
aF95.315112417452397
aF95.460039953684259
aF95.611424972325082
aF96.056991258541046
aS'10 HL2 units'
tp35
aS'breast cancers averages over 10 fold cross validation varying hidden units from 1 to 10, hidden layer = 2, epochs = 10 (with timings)'
p36
t.