((lp1
((lp2
F11.962868928909302
aF24.813436985015869
aF38.479671955108643
aF52.261425971984863
aF66.03619909286499
aF79.766455888748169
aF92.164671897888184
aF104.56913900375366
aF116.95470190048218
aF129.36824798583984
a(lp3
F65.0070618773142
aF69.06503289180695
aF65.0070618773142
aF70.117888816785637
aF70.554802712778809
aF67.245867847463458
aF77.274751561883676
aF83.185829166189507
aF86.563919532770939
aF92.991882022114481
aS'0 HL2 units'
p4
tp5
a((lp6
F15.625982999801636
aF32.018160104751587
aF48.480726957321167
aF64.987520933151245
aF81.531970977783203
aF98.134284019470215
aF114.79381704330444
aF131.46386003494263
aF148.18528199195862
aF164.95550107955933
aF181.02027797698975
aF197.98462295532227
aF215.08566308021545
aF232.23551797866821
aF249.49470400810242
aF266.69507694244385
aF284.10421514511108
aF301.64331293106079
aF319.12749195098877
aF336.69130206108093
aF353.04325795173645
aF370.25280809402466
aF387.50515413284302
aF404.74308013916016
aF422.05749607086182
aF439.36559200286865
aF456.77621412277222
aF474.22544503211975
aF491.82970499992371
aF509.43708801269531
aF525.73497009277344
aF543.08183002471924
aF560.38460302352905
aF577.76836395263672
aF595.13744306564331
aF612.60001611709595
aF630.09913110733032
aF647.60900402069092
aF665.19720506668091
aF682.80849099159241
aF699.10482811927795
aF716.44092297554016
aF733.84536910057068
aF751.28076696395874
aF768.69568204879761
aF786.42365312576294
aF805.9790940284729
aF825.60180711746216
aF845.0310001373291
aF864.59857201576233
aF882.73770999908447
aF901.92739796638489
aF921.24150204658508
aF940.58185005187988
aF960.75852608680725
aF980.69148707389832
aF1000.0867490768433
aF1018.1183979511261
aF1035.7460911273956
aF1053.3962111473083
aF1069.7273609638214
aF1087.0755760669708
aF1104.5258960723877
aF1121.9476299285889
aF1139.4361231327057
aF1157.0389721393585
aF1174.6664180755615
aF1192.2907130718231
aF1210.0445749759674
aF1227.81454205513
aF1244.4216070175171
aF1262.0312449932098
aF1279.5215981006622
aF1297.1916589736938
aF1314.7970480918884
aF1332.3043661117554
aF1349.9796869754791
aF1367.6075041294098
aF1385.3746929168701
aF1403.0502460002899
aF1419.52494597435
aF1436.93203997612
aF1455.5309119224548
aF1475.0844929218292
aF1495.1323380470276
aF1514.9059429168701
aF1534.7421231269836
aF1554.6268389225006
aF1574.4556610584259
aF1594.2319231033325
aF1612.5186400413513
aF1631.9024069309235
aF1651.4413859844208
aF1670.9610750675201
aF1689.258975982666
aF1707.6254510879517
aF1727.104807138443
aF1747.4289679527283
aF1767.2950830459595
aF1787.3717730045319
a(lp7
F65.0070618773142
aF65.0070618773142
aF65.0070618773142
aF65.0070618773142
aF65.0070618773142
aF65.0070618773142
aF65.0070618773142
aF65.0070618773142
aF65.0070618773142
aF65.0070618773142
aF65.0070618773142
aF65.0070618773142
aF67.948238347902432
aF65.0070618773142
aF65.0070618773142
aF71.33059128907891
aF65.0070618773142
aF78.048408850886247
aF65.0070618773142
aF65.0070618773142
aF65.0070618773142
aF65.0070618773142
aF68.195467674415639
aF74.813114733239175
aF74.523259660775409
aF82.111469506686532
aF77.562475347049912
aF68.242355994961258
aF71.575689328294601
aF74.76409512539604
aF65.0070618773142
aF70.94909086282145
aF84.692394803476219
aF88.510898194449751
aF85.863839370920346
aF84.40047206423128
aF81.52110292527135
aF82.299086409385296
aF95.295676349709254
aF90.115757529488107
aF65.0070618773142
aF78.840070746014177
aF87.548319782163361
aF93.242992200124689
aF87.996017355676855
aF94.127667290147727
aF90.937193826265087
aF93.978477179320791
aF87.996017355676855
aF91.62773091066407
aF65.0070618773142
aF84.018780776424791
aF94.268205010751856
aF93.234467050934583
aF93.383657161761533
aF93.238729625529643
aF93.833549643088901
aF94.562513519359726
aF94.562449898843383
aF94.562449898843397
aF71.383873471517092
aF92.648426664630804
aF93.089539514702707
aF93.10245447952056
aF94.123341095036324
aF94.123404715552667
aF94.419653649909023
aF94.560318611545853
aF94.571038668549832
aF94.715966204781708
aF73.206124110903289
aF91.768332251784557
aF92.795421867643867
aF93.390178264686796
aF93.833549643088901
aF94.268332251784557
aF94.272594826379617
aF93.980608466618321
aF94.125536002850211
aF94.568843760735973
aF75.026816047639059
aF89.125345141301153
aF93.098191904925486
aF93.100386812739373
aF94.125536002850197
aF94.270463539082087
aF94.423979845020412
aF94.125536002850211
aF94.274726113677133
aF94.566776093954772
aF73.089857617284423
aF92.360639258948225
aF93.093865709814082
aF93.245250728454906
aF93.829287068493841
aF94.562449898843383
aF93.978477179320791
aF93.982739753915851
aF93.833549643088915
aF93.982739753915851
aS'1 HL2 units'
tp8
a(g6
g7
S'2 HL2 units'
tp9
a(g6
g7
S'3 HL2 units'
tp10
a(g6
g7
S'4 HL2 units'
tp11
a(g6
g7
S'5 HL2 units'
tp12
a(g6
g7
S'6 HL2 units'
tp13
a(g6
g7
S'7 HL2 units'
tp14
a(g6
g7
S'8 HL2 units'
tp15
a(g6
g7
S'9 HL2 units'
tp16
a(g6
g7
S'10 HL2 units'
tp17
aS'breast cancers averages over 10 fold cross validation varying hidden units from 1 to 10, hidden layer = 2, epochs = 10 (with timings)'
p18
t.