((lp1
((lp2
I0
aI1
aI2
aI3
aI4
aI5
aI6
aI7
aI8
aI9
aI10
aI11
aI12
aI13
aI14
aI15
aI16
aI17
aI18
aI19
aI20
aI21
aI22
aI23
aI24
aI25
aI26
aI27
aI28
aI29
aI30
aI31
aI32
aI33
aI34
aI35
aI36
aI37
aI38
aI39
aI40
aI41
aI42
aI43
aI44
aI45
aI46
aI47
aI48
aI49
aI50
aI51
aI52
aI53
aI54
aI55
aI56
aI57
aI58
aI59
aI60
aI61
aI62
aI63
aI64
aI65
aI66
aI67
aI68
aI69
aI70
aI71
aI72
aI73
aI74
aI75
aI76
aI77
aI78
aI79
aI80
aI81
aI82
aI83
aI84
aI85
aI86
aI87
aI88
aI89
aI90
aI91
aI92
aI93
aI94
aI95
aI96
aI97
aI98
aI99
aI100
aI101
aI102
aI103
aI104
aI105
aI106
aI107
aI108
aI109
aI110
aI111
aI112
aI113
aI114
aI115
aI116
aI117
aI118
aI119
aI120
aI121
aI122
aI123
aI124
aI125
aI126
aI127
aI128
aI129
aI130
aI131
aI132
aI133
aI134
aI135
aI136
aI137
aI138
aI139
aI140
aI141
aI142
aI143
aI144
aI145
aI146
aI147
aI148
aI149
aI150
aI151
aI152
aI153
aI154
aI155
aI156
aI157
aI158
aI159
aI160
aI161
aI162
aI163
aI164
aI165
aI166
aI167
aI168
aI169
aI170
aI171
aI172
aI173
aI174
aI175
aI176
aI177
aI178
aI179
aI180
aI181
aI182
aI183
aI184
aI185
aI186
aI187
aI188
aI189
aI190
aI191
aI192
aI193
aI194
aI195
aI196
aI197
aI198
aI199
aI200
aI201
aI202
aI203
aI204
aI205
aI206
aI207
aI208
aI209
aI210
aI211
aI212
aI213
aI214
aI215
aI216
aI217
aI218
aI219
aI220
aI221
aI222
aI223
aI224
aI225
aI226
aI227
aI228
aI229
aI230
aI231
aI232
aI233
aI234
aI235
aI236
aI237
aI238
aI239
aI240
aI241
aI242
aI243
aI244
aI245
aI246
aI247
aI248
aI249
aI250
aI251
aI252
aI253
aI254
aI255
aI256
aI257
aI258
aI259
aI260
aI261
aI262
aI263
aI264
aI265
aI266
aI267
aI268
aI269
aI270
aI271
aI272
aI273
aI274
aI275
aI276
aI277
aI278
aI279
aI280
aI281
aI282
aI283
aI284
aI285
aI286
aI287
aI288
aI289
aI290
aI291
aI292
aI293
aI294
aI295
aI296
aI297
aI298
aI299
aI300
aI301
aI302
aI303
aI304
aI305
aI306
aI307
aI308
aI309
aI310
aI311
aI312
aI313
aI314
aI315
aI316
aI317
aI318
aI319
aI320
aI321
aI322
aI323
aI324
aI325
aI326
aI327
aI328
aI329
aI330
aI331
aI332
aI333
aI334
aI335
aI336
aI337
aI338
aI339
aI340
aI341
aI342
aI343
aI344
aI345
aI346
aI347
aI348
aI349
aI350
aI351
aI352
aI353
aI354
aI355
aI356
aI357
aI358
aI359
aI360
aI361
aI362
aI363
aI364
aI365
aI366
aI367
aI368
aI369
aI370
aI371
aI372
aI373
aI374
aI375
aI376
aI377
aI378
aI379
aI380
aI381
aI382
aI383
aI384
aI385
aI386
aI387
aI388
aI389
aI390
aI391
aI392
aI393
aI394
aI395
aI396
aI397
aI398
aI399
a(lp3
F65.007320644216691
aF65.007320644216691
aF65.007320644216691
aF66.861883845778422
aF88.547258825443308
aF91.719537986009442
aF94.289897510980964
aF94.013339840572641
aF94.550187083129984
aF94.875549048316259
aF95.412396290873602
aF95.688953961281925
aF95.59134537172605
aF95.493736782170174
aF95.672685863022608
aF96.290873596876523
aF96.258337400357902
aF96.209533105579965
aF96.33967789165446
aF96.469822677728985
aF96.30714169513584
aF96.551163169025543
aF96.486090775988288
aF96.518626972506922
aF96.56743126728486
aF96.681307955100053
aF96.778916544655942
aF96.762648446396611
aF96.762648446396611
aF96.713844151618673
aF96.795184642915245
aF96.762648446396611
aF96.876525134211818
aF96.941597527249073
aF96.957865625508376
aF96.941597527249073
aF96.974133723767693
aF97.006669920286313
aF96.941597527249073
aF96.941597527249073
aF96.892793232471121
aF96.8602570359525
aF96.8602570359525
aF96.843988937693183
aF96.8602570359525
aF96.909061330730438
aF96.941597527249073
aF97.006669920286313
aF97.022938018545631
aF97.055474215064265
aF96.925329428989755
aF96.843988937693183
aF96.957865625508376
aF96.876525134211818
aF96.82772083943388
aF96.892793232471121
aF96.746380348137308
aF97.022938018545631
aF96.99040182202701
aF97.039206116804948
aF97.039206116804948
aF97.088010411582886
aF97.055474215064265
aF97.136814706360823
aF97.136814706360823
aF97.169350902879458
aF97.185619001138761
aF97.136814706360823
aF97.153082804620141
aF97.169350902879458
aF97.25069139417603
aF97.25069139417603
aF97.283227590694636
aF97.299495688953968
aF97.283227590694636
aF97.234423295916699
aF97.299495688953968
aF97.25069139417603
aF97.315763787213271
aF97.348299983731906
aF97.218155197657396
aF97.348299983731906
aF97.364568081991223
aF97.348299983731906
aF97.348299983731906
aF97.315763787213271
aF97.413372376769161
aF97.348299983731906
aF97.315763787213271
aF97.332031885472588
aF97.218155197657396
aF97.283227590694636
aF97.283227590694636
aF97.283227590694636
aF97.364568081991223
aF97.462176671547098
aF97.332031885472588
aF97.348299983731906
aF97.494712868065719
aF97.397104278509843
aF97.494712868065719
aF97.641125752399546
aF97.429640475028464
aF97.543517162843656
aF97.592321457621594
aF97.283227590694636
aF97.397104278509843
aF97.641125752399546
aF97.218155197657396
aF97.510980966325036
aF97.592321457621594
aF97.478444769806401
aF97.299495688953968
aF97.494712868065719
aF97.657393850658863
aF97.576053359362291
aF97.689930047177484
aF97.429640475028464
aF97.592321457621594
aF97.527249064584353
aF97.771270538474056
aF97.852611029770614
aF97.885147226289249
aF97.738734341955421
aF97.885147226289249
aF97.608589555880926
aF97.543517162843656
aF97.852611029770614
aF97.592321457621594
aF97.885147226289249
aF97.771270538474056
aF97.982755815845124
aF97.933951521067186
aF98.047828208882379
aF98.015292012363759
aF97.885147226289249
aF97.933951521067186
aF97.820074833251994
aF97.966487717585821
aF98.031560110623076
aF97.820074833251994
aF97.982755815845124
aF98.080364405401014
aF97.982755815845124
aF97.836342931511311
aF97.950219619326504
aF98.031560110623076
aF97.966487717585821
aF97.999023914104441
aF97.999023914104441
aF98.096632503660317
aF98.031560110623076
aF98.096632503660317
aF98.161704896697572
aF98.112900601919634
aF98.031560110623076
aF98.177972994956889
aF98.096632503660317
aF98.161704896697572
aF98.194241093216206
aF98.080364405401014
aF98.112900601919634
aF98.080364405401014
aF98.129168700178951
aF98.194241093216206
aF98.177972994956889
aF98.145436798438269
aF97.999023914104441
aF98.129168700178951
aF98.177972994956889
aF98.096632503660317
aF98.080364405401014
aF98.080364405401014
aF98.031560110623076
aF98.194241093216206
aF98.031560110623076
aF98.096632503660317
aF98.145436798438269
aF98.145436798438269
aF94.891817146575562
aF98.015292012363759
aF98.161704896697572
aF98.080364405401014
aF98.194241093216206
aF98.112900601919634
aF98.324385879290716
aF98.226777289734841
aF98.308117781031399
aF98.275581584512778
aF98.161704896697572
aF98.259313486253447
aF98.243045387994144
aF98.129168700178951
aF98.096632503660317
aF98.226777289734841
aF98.194241093216206
aF98.194241093216206
aF98.145436798438269
aF98.112900601919634
aF98.064096307141696
aF98.194241093216206
aF98.210509191475509
aF98.226777289734841
aF98.291849682772082
aF97.966487717585821
aF98.145436798438269
aF98.291849682772082
aF98.194241093216206
aF98.243045387994144
aF98.373190174068654
aF98.324385879290716
aF98.275581584512778
aF98.112900601919634
aF97.689930047177484
aF97.982755815845124
aF97.868879128029931
aF98.015292012363759
aF98.129168700178951
aF98.389458272327971
aF97.950219619326504
aF98.389458272327971
aF98.259313486253447
aF98.194241093216206
aF98.031560110623076
aF98.421994468846592
aF98.047828208882379
aF98.291849682772082
aF98.389458272327971
aF98.177972994956889
aF98.308117781031399
aF97.999023914104441
aF98.275581584512778
aF98.259313486253447
aF98.031560110623076
aF98.015292012363759
aF98.324385879290716
aF98.438262567105909
aF98.454530665365212
aF98.275581584512778
aF98.259313486253447
aF98.454530665365212
aF98.356922075809337
aF98.519603058402467
aF98.519603058402467
aF98.535871156661798
aF98.243045387994144
aF98.340653977550033
aF98.145436798438269
aF98.340653977550033
aF98.421994468846592
aF98.308117781031399
aF98.356922075809337
aF98.552139254921101
aF98.519603058402467
aF98.535871156661798
aF98.421994468846592
aF98.259313486253447
aF98.161704896697572
aF98.405726370587274
aF98.194241093216206
aF98.177972994956889
aF98.454530665365212
aF98.454530665365212
aF98.487066861883847
aF98.421994468846592
aF98.487066861883847
aF98.535871156661798
aF98.487066861883847
aF98.421994468846592
aF98.405726370587274
aF98.568407353180405
aF98.552139254921101
aF98.584675451439736
aF98.568407353180405
aF98.389458272327971
aF98.405726370587274
aF98.568407353180405
aF98.470798763624529
aF98.633479746217674
aF98.421994468846592
aF98.405726370587274
aF98.633479746217674
aF98.519603058402467
aF98.470798763624529
aF98.503334960143164
aF98.519603058402467
aF98.519603058402467
aF98.487066861883847
aF98.568407353180405
aF98.291849682772082
aF98.568407353180405
aF98.373190174068654
aF98.552139254921101
aF98.552139254921101
aF98.649747844476977
aF98.584675451439736
aF98.584675451439736
aF98.649747844476977
aF98.503334960143164
aF98.568407353180405
aF98.487066861883847
aF98.552139254921101
aF98.666015942736294
aF98.682284040995611
aF98.568407353180405
aF98.584675451439736
aF98.438262567105909
aF98.649747844476977
aF98.535871156661798
aF98.682284040995611
aF98.584675451439736
aF98.600943549699039
aF98.519603058402467
aF98.617211647958356
aF98.535871156661798
aF98.584675451439736
aF98.698552139254929
aF98.487066861883847
aF98.568407353180405
aF98.649747844476977
aF98.731088335773549
aF98.731088335773549
aF98.76362453229217
aF98.714820237514232
aF98.568407353180405
aF98.731088335773549
aF98.861233121848059
aF98.666015942736294
aF98.76362453229217
aF98.893769318366679
aF98.731088335773549
aF98.828696925329425
aF98.633479746217674
aF98.405726370587274
aF98.649747844476977
aF98.779892630551487
aF98.747356434032866
aF98.649747844476977
aF98.747356434032866
aF98.910037416625997
aF98.861233121848059
aF98.893769318366679
aF98.958841711403934
aF98.877501220107362
aF98.893769318366679
aF98.958841711403934
aF98.958841711403934
aF98.861233121848059
aF98.975109809663252
aF98.910037416625997
aF98.942573613144617
aF98.714820237514232
aF98.861233121848059
aF98.893769318366679
aF98.942573613144617
aF99.007646006181886
aF98.877501220107362
aF98.958841711403934
aF98.991377907922555
aF98.731088335773549
aF99.007646006181886
aF98.861233121848059
aF99.023914104441189
aF98.893769318366679
aF99.040182202700493
aF98.893769318366679
aF98.975109809663252
aF98.991377907922555
aF98.958841711403934
aF98.975109809663252
aF98.958841711403934
aF99.072718399219127
aF98.991377907922555
aF98.975109809663252
aF98.975109809663252
aF98.991377907922555
aF98.910037416625997
aF98.926305514885314
aF98.649747844476977
aF98.812428827070121
aF98.714820237514232
aF98.942573613144617
aF98.942573613144617
aF98.877501220107362
aF98.910037416625997
aF98.942573613144617
aF98.877501220107362
aF99.023914104441189
aF98.926305514885314
aF99.023914104441189
aF99.023914104441189
aF98.958841711403934
aF99.072718399219127
aF98.958841711403934
aF98.975109809663252
aF98.861233121848059
aF98.861233121848059
aF98.844965023588742
aF98.861233121848059
aF98.910037416625997
aS'avg train'
p4
tp5
a((lp6
I0
aI1
aI2
aI3
aI4
aI5
aI6
aI7
aI8
aI9
aI10
aI11
aI12
aI13
aI14
aI15
aI16
aI17
aI18
aI19
aI20
aI21
aI22
aI23
aI24
aI25
aI26
aI27
aI28
aI29
aI30
aI31
aI32
aI33
aI34
aI35
aI36
aI37
aI38
aI39
aI40
aI41
aI42
aI43
aI44
aI45
aI46
aI47
aI48
aI49
aI50
aI51
aI52
aI53
aI54
aI55
aI56
aI57
aI58
aI59
aI60
aI61
aI62
aI63
aI64
aI65
aI66
aI67
aI68
aI69
aI70
aI71
aI72
aI73
aI74
aI75
aI76
aI77
aI78
aI79
aI80
aI81
aI82
aI83
aI84
aI85
aI86
aI87
aI88
aI89
aI90
aI91
aI92
aI93
aI94
aI95
aI96
aI97
aI98
aI99
aI100
aI101
aI102
aI103
aI104
aI105
aI106
aI107
aI108
aI109
aI110
aI111
aI112
aI113
aI114
aI115
aI116
aI117
aI118
aI119
aI120
aI121
aI122
aI123
aI124
aI125
aI126
aI127
aI128
aI129
aI130
aI131
aI132
aI133
aI134
aI135
aI136
aI137
aI138
aI139
aI140
aI141
aI142
aI143
aI144
aI145
aI146
aI147
aI148
aI149
aI150
aI151
aI152
aI153
aI154
aI155
aI156
aI157
aI158
aI159
aI160
aI161
aI162
aI163
aI164
aI165
aI166
aI167
aI168
aI169
aI170
aI171
aI172
aI173
aI174
aI175
aI176
aI177
aI178
aI179
aI180
aI181
aI182
aI183
aI184
aI185
aI186
aI187
aI188
aI189
aI190
aI191
aI192
aI193
aI194
aI195
aI196
aI197
aI198
aI199
aI200
aI201
aI202
aI203
aI204
aI205
aI206
aI207
aI208
aI209
aI210
aI211
aI212
aI213
aI214
aI215
aI216
aI217
aI218
aI219
aI220
aI221
aI222
aI223
aI224
aI225
aI226
aI227
aI228
aI229
aI230
aI231
aI232
aI233
aI234
aI235
aI236
aI237
aI238
aI239
aI240
aI241
aI242
aI243
aI244
aI245
aI246
aI247
aI248
aI249
aI250
aI251
aI252
aI253
aI254
aI255
aI256
aI257
aI258
aI259
aI260
aI261
aI262
aI263
aI264
aI265
aI266
aI267
aI268
aI269
aI270
aI271
aI272
aI273
aI274
aI275
aI276
aI277
aI278
aI279
aI280
aI281
aI282
aI283
aI284
aI285
aI286
aI287
aI288
aI289
aI290
aI291
aI292
aI293
aI294
aI295
aI296
aI297
aI298
aI299
aI300
aI301
aI302
aI303
aI304
aI305
aI306
aI307
aI308
aI309
aI310
aI311
aI312
aI313
aI314
aI315
aI316
aI317
aI318
aI319
aI320
aI321
aI322
aI323
aI324
aI325
aI326
aI327
aI328
aI329
aI330
aI331
aI332
aI333
aI334
aI335
aI336
aI337
aI338
aI339
aI340
aI341
aI342
aI343
aI344
aI345
aI346
aI347
aI348
aI349
aI350
aI351
aI352
aI353
aI354
aI355
aI356
aI357
aI358
aI359
aI360
aI361
aI362
aI363
aI364
aI365
aI366
aI367
aI368
aI369
aI370
aI371
aI372
aI373
aI374
aI375
aI376
aI377
aI378
aI379
aI380
aI381
aI382
aI383
aI384
aI385
aI386
aI387
aI388
aI389
aI390
aI391
aI392
aI393
aI394
aI395
aI396
aI397
aI398
aI399
a(lp7
F65.007320644216691
aF65.007320644216691
aF65.007320644216691
aF66.61786237188872
aF88.433382137628115
aF91.361639824304547
aF93.557833089311856
aF93.704245973645683
aF93.704245973645683
aF94.143484626647151
aF95.314787701317712
aF95.314787701317712
aF95.314787701317712
aF95.168374816983885
aF95.314787701317712
aF95.75402635431918
aF95.607613469985367
aF95.607613469985367
aF95.75402635431918
aF95.900439238653007
aF95.75402635431918
aF96.04685212298682
aF96.193265007320647
aF96.193265007320647
aF96.193265007320647
aF95.900439238653007
aF96.04685212298682
aF96.33967789165446
aF96.33967789165446
aF96.193265007320647
aF96.33967789165446
aF96.04685212298682
aF96.33967789165446
aF96.33967789165446
aF96.486090775988288
aF96.33967789165446
aF96.33967789165446
aF96.486090775988288
aF96.33967789165446
aF96.486090775988288
aF96.486090775988288
aF96.33967789165446
aF96.33967789165446
aF96.33967789165446
aF96.33967789165446
aF96.193265007320647
aF96.33967789165446
aF96.33967789165446
aF96.33967789165446
aF96.486090775988288
aF96.486090775988288
aF96.632503660322115
aF96.632503660322115
aF96.778916544655942
aF96.778916544655942
aF96.925329428989755
aF96.778916544655942
aF96.925329428989755
aF97.071742313323568
aF97.071742313323568
aF97.071742313323568
aF97.071742313323568
aF96.632503660322115
aF97.071742313323568
aF97.071742313323568
aF96.925329428989755
aF96.925329428989755
aF96.925329428989755
aF96.925329428989755
aF96.925329428989755
aF96.925329428989755
aF96.778916544655942
aF96.778916544655942
aF96.778916544655942
aF96.486090775988288
aF96.486090775988288
aF96.33967789165446
aF96.33967789165446
aF96.632503660322115
aF96.632503660322115
aF96.632503660322115
aF96.193265007320647
aF96.632503660322115
aF96.632503660322115
aF96.778916544655942
aF96.778916544655942
aF96.486090775988288
aF96.778916544655942
aF96.778916544655942
aF96.778916544655942
aF96.486090775988288
aF96.778916544655942
aF96.778916544655942
aF96.486090775988288
aF96.632503660322115
aF96.778916544655942
aF96.778916544655942
aF96.486090775988288
aF96.486090775988288
aF96.33967789165446
aF96.486090775988288
aF96.632503660322115
aF96.632503660322115
aF96.778916544655942
aF96.632503660322115
aF96.193265007320647
aF96.486090775988288
aF96.925329428989755
aF96.486090775988288
aF96.925329428989755
aF96.632503660322115
aF96.925329428989755
aF96.33967789165446
aF96.778916544655942
aF96.778916544655942
aF96.632503660322115
aF96.632503660322115
aF96.778916544655942
aF96.632503660322115
aF96.632503660322115
aF96.486090775988288
aF96.486090775988288
aF96.33967789165446
aF96.632503660322115
aF96.486090775988288
aF96.778916544655942
aF96.632503660322115
aF96.486090775988288
aF96.778916544655942
aF96.778916544655942
aF96.778916544655942
aF96.486090775988288
aF96.33967789165446
aF96.778916544655942
aF96.632503660322115
aF96.486090775988288
aF96.632503660322115
aF96.632503660322115
aF96.33967789165446
aF96.632503660322115
aF96.193265007320647
aF96.193265007320647
aF96.486090775988288
aF96.486090775988288
aF96.486090775988288
aF96.193265007320647
aF96.778916544655942
aF96.193265007320647
aF96.33967789165446
aF96.193265007320647
aF96.193265007320647
aF96.486090775988288
aF96.193265007320647
aF96.33967789165446
aF96.193265007320647
aF96.04685212298682
aF96.04685212298682
aF96.04685212298682
aF96.193265007320647
aF96.193265007320647
aF96.04685212298682
aF96.193265007320647
aF96.04685212298682
aF96.193265007320647
aF96.04685212298682
aF96.04685212298682
aF96.04685212298682
aF95.900439238653007
aF96.193265007320647
aF96.193265007320647
aF96.04685212298682
aF96.193265007320647
aF96.04685212298682
aF95.75402635431918
aF96.193265007320647
aF96.193265007320647
aF96.193265007320647
aF96.193265007320647
aF96.193265007320647
aF92.825768667642748
aF96.04685212298682
aF96.193265007320647
aF96.193265007320647
aF96.193265007320647
aF96.04685212298682
aF96.193265007320647
aF96.04685212298682
aF96.193265007320647
aF96.193265007320647
aF96.193265007320647
aF96.486090775988288
aF96.486090775988288
aF96.33967789165446
aF96.193265007320647
aF96.486090775988288
aF96.486090775988288
aF96.193265007320647
aF96.33967789165446
aF96.04685212298682
aF96.33967789165446
aF96.33967789165446
aF96.486090775988288
aF96.486090775988288
aF96.33967789165446
aF96.193265007320647
aF96.486090775988288
aF96.33967789165446
aF96.33967789165446
aF96.486090775988288
aF96.193265007320647
aF96.33967789165446
aF96.193265007320647
aF95.607613469985367
aF95.75402635431918
aF95.900439238653007
aF95.607613469985367
aF96.486090775988288
aF95.607613469985367
aF96.04685212298682
aF95.75402635431918
aF96.04685212298682
aF95.900439238653007
aF95.75402635431918
aF95.75402635431918
aF96.193265007320647
aF95.607613469985367
aF96.193265007320647
aF96.04685212298682
aF96.486090775988288
aF96.193265007320647
aF96.04685212298682
aF96.33967789165446
aF96.486090775988288
aF96.486090775988288
aF96.33967789165446
aF96.193265007320647
aF96.486090775988288
aF96.33967789165446
aF96.193265007320647
aF96.04685212298682
aF96.632503660322115
aF96.04685212298682
aF96.33967789165446
aF96.33967789165446
aF96.486090775988288
aF95.607613469985367
aF96.33967789165446
aF96.04685212298682
aF96.193265007320647
aF96.33967789165446
aF96.33967789165446
aF96.04685212298682
aF96.486090775988288
aF96.193265007320647
aF95.75402635431918
aF95.900439238653007
aF96.04685212298682
aF95.607613469985367
aF96.193265007320647
aF96.04685212298682
aF96.04685212298682
aF96.193265007320647
aF96.193265007320647
aF96.193265007320647
aF96.04685212298682
aF96.04685212298682
aF95.900439238653007
aF96.193265007320647
aF96.04685212298682
aF96.04685212298682
aF96.193265007320647
aF96.193265007320647
aF96.193265007320647
aF96.193265007320647
aF95.900439238653007
aF96.193265007320647
aF96.193265007320647
aF96.193265007320647
aF96.193265007320647
aF96.193265007320647
aF96.632503660322115
aF96.486090775988288
aF96.04685212298682
aF96.33967789165446
aF96.33967789165446
aF95.900439238653007
aF96.193265007320647
aF96.193265007320647
aF96.193265007320647
aF95.607613469985367
aF96.04685212298682
aF96.04685212298682
aF96.193265007320647
aF96.193265007320647
aF95.900439238653007
aF96.33967789165446
aF95.900439238653007
aF96.04685212298682
aF95.900439238653007
aF95.900439238653007
aF96.193265007320647
aF96.33967789165446
aF96.33967789165446
aF96.193265007320647
aF96.486090775988288
aF96.486090775988288
aF96.193265007320647
aF96.193265007320647
aF96.193265007320647
aF96.486090775988288
aF96.486090775988288
aF96.33967789165446
aF96.33967789165446
aF96.486090775988288
aF96.486090775988288
aF96.33967789165446
aF96.486090775988288
aF96.33967789165446
aF96.486090775988288
aF96.632503660322115
aF96.632503660322115
aF96.486090775988288
aF96.04685212298682
aF96.33967789165446
aF96.04685212298682
aF96.193265007320647
aF96.193265007320647
aF96.193265007320647
aF96.04685212298682
aF96.193265007320647
aF96.04685212298682
aF96.04685212298682
aF96.193265007320647
aF96.04685212298682
aF96.04685212298682
aF96.193265007320647
aF96.193265007320647
aF96.33967789165446
aF96.33967789165446
aF96.33967789165446
aF96.193265007320647
aF96.04685212298682
aF96.193265007320647
aF96.486090775988288
aF96.193265007320647
aF96.193265007320647
aF95.900439238653007
aF96.33967789165446
aF96.04685212298682
aF96.33967789165446
aF95.75402635431918
aF96.193265007320647
aF96.193265007320647
aF96.04685212298682
aF95.900439238653007
aF95.900439238653007
aF96.04685212298682
aF95.900439238653007
aF96.193265007320647
aF96.04685212298682
aF96.193265007320647
aF95.75402635431918
aF95.900439238653007
aF95.900439238653007
aF96.04685212298682
aF95.75402635431918
aF95.900439238653007
aF95.900439238653007
aF96.04685212298682
aF95.900439238653007
aF95.900439238653007
aF96.04685212298682
aF95.900439238653007
aF96.04685212298682
aF95.900439238653007
aF96.04685212298682
aF96.04685212298682
aF95.607613469985367
aF95.75402635431918
aF95.900439238653007
aF95.75402635431918
aF95.900439238653007
aF96.486090775988288
aF96.193265007320647
aF96.04685212298682
aF96.193265007320647
aF95.900439238653007
aF95.900439238653007
aF96.04685212298682
aF96.193265007320647
aF96.04685212298682
aF95.900439238653007
aF96.193265007320647
aF96.632503660322115
aF95.900439238653007
aF96.04685212298682
aF95.900439238653007
aF95.900439238653007
aF96.33967789165446
aF96.33967789165446
aS'avg test'
p8
tp9
aS'breast cancers iterative accuracy from 1 to 10000 epochs on train and test'
p10
t.