((lp1
F65.0070618773142
aF70.701861536308215
aF70.995979183367041
aF71.330591289078896
aF68.095297171431838
aF77.315246020536705
aF71.528801007748982
aF71.138775432301401
aF80.353539209324225
aF80.059421562265399
aF89.912362738735993
aF86.721825654337025
aF96.041945006425678
aF93.100768535837432
aF96.189003829955098
aS'breast cancers averages over 10 fold cross validation varying hidden units from 1 to 10, hidden layer = 1, epochs = 100'
p2
t.