((lp1
((lp2
F0.39760766029357908
aF0.79421737194061282
aF1.1969395637512208
aF1.5918619871139525
aF1.9877873659133911
aF2.3871453523635866
aF2.7827519655227659
aF3.1794768095016481
aF3.5770934820175171
aF3.9774035453796386
aF4.3750176191329953
aF4.7702432870864868
aF5.1687970399856571
aF5.5660357475280762
aF5.9624976873397824
aF6.3633662939071653
aF6.7635185480117794
aF7.1602916479110714
aF7.557307243347168
aF7.9541610717773441
aF8.3513051509857181
aF8.7483369350433353
aF9.1461297988891594
aF9.543185758590699
aF9.9412338733673096
aF10.337257528305054
aF10.737682747840882
aF11.132942771911621
aF11.534476447105408
aF11.933297562599183
aF12.333688974380493
aF12.736772608757018
aF13.135547256469726
aF13.532660746574402
aF13.930148482322693
aF14.326561808586121
aF14.730536198616027
aF15.1312579870224
aF15.530158829689025
aF15.926347565650939
aF16.323516178131104
aF16.727030277252197
aF17.124896240234374
aF17.520683169364929
aF17.917097449302673
aF18.31557204723358
aF18.714372777938841
aF19.112664961814879
aF19.51063792705536
aF19.907048583030701
aF20.304878878593446
aF20.702438163757325
aF21.104021406173707
aF21.499156069755553
aF21.893413305282593
aF22.294911408424376
aF22.6930330991745
aF23.089724898338318
aF23.48875014781952
aF23.888604283332825
aF24.288472223281861
aF24.689470577239991
aF25.087945437431337
aF25.483939504623415
aF25.880893802642824
aF26.282415676116944
aF26.682735776901247
aF27.085593509674073
aF27.485008859634398
aF27.88724069595337
aF28.28643810749054
aF28.687212419509887
aF29.08278398513794
aF29.482841682434081
aF29.884036469459534
aF30.279222655296326
aF30.681610870361329
aF31.087081408500673
aF31.486570978164671
aF31.883939504623413
aF32.291049599647522
aF32.694406390190125
aF33.097641706466675
aF33.500951766967773
aF33.902649068832396
aF34.303965854644773
aF34.710847783088681
aF35.123730587959287
aF35.526726603507996
aF35.934751176834105
aF36.33282377719879
aF36.733277344703673
aF37.12932119369507
aF37.531201291084287
aF37.935772275924684
aF38.339997482299808
aF38.744932484626773
aF39.145989441871642
aF39.553227567672728
aF39.95784225463867
aF40.360143494606021
aF40.765461897850038
aF41.165296411514284
aF41.571168351173398
aF41.976159906387331
aF42.378946256637576
aF42.782188272476198
aF43.18620841503143
aF43.589883732795712
aF43.993330979347228
aF44.397131085395813
aF44.797904992103575
aF45.19820499420166
aF45.60133876800537
aF46.007340669631958
aF46.411110377311708
aF46.813250470161435
aF47.216692185401918
aF47.623324155807495
aF48.029415202140811
aF48.434244346618655
aF48.837644481658934
aF49.241727685928346
aF49.653162288665769
aF50.058975887298587
aF50.464866495132448
aF50.872007274627684
aF51.273499584197999
aF51.677593803405763
aF52.08306517601013
aF52.494948053359984
aF52.898329401016234
aF53.300418376922607
aF53.701050257682802
aF54.105707693099973
aF54.508761525154114
aF54.909535360336307
aF55.317328977584836
aF55.724126815795898
aF56.128062653541562
aF56.530302000045779
aF56.930340576171872
aF57.332920169830324
aF57.736819076538083
aF58.140493774414061
aF58.551958799362183
aF58.959410500526431
aF59.367595958709714
aF59.769289803504947
aF60.171586966514589
aF60.572536587715149
aF60.973667001724245
aF61.381845998764035
aF61.786681270599367
aF62.187928795814514
aF62.590627622604373
aF62.992550992965697
aF63.395441865921022
aF63.795043587684631
aF64.198844480514524
aF64.59990482330322
aF65.002610754966739
aF65.405981969833377
aF65.812842273712164
aF66.210553693771359
aF66.607778787612915
aF67.008683586120611
aF67.404405879974362
aF67.801743268966675
aF68.198603868484497
aF68.596149778366083
aF68.998925471305853
aF69.394266176223752
aF69.79269979000091
aF70.189037275314334
aF70.59335098266601
aF70.993675613403326
aF71.388429307937628
aF71.790187692642206
aF72.192093586921686
aF72.594100165367124
aF72.999883103370664
aF73.400995111465448
aF73.802177500724795
aF74.208706188201901
aF74.617663979530334
aF75.018232512474057
aF75.423094677925107
aF75.83028330802918
aF76.2342565536499
aF76.635360455512995
aF77.038893127441412
aF77.444382023811343
aF77.851505112648013
aF78.267806816101071
aF78.671953678131104
aF79.072913265228266
aF79.47597348690033
aF79.882609677314761
aF80.29176030158996
aF80.695283365249637
aF81.104061484336853
aF81.505974578857419
aF81.911568093299863
aF82.319283890724179
aF82.729288411140445
aF83.136138844490048
aF83.539415621757513
aF83.938146257400518
aF84.336771225929255
aF84.736685276031494
aF85.132320046424866
aF85.528333997726435
aF85.924554705619812
aF86.321570897102362
aF86.719153881072998
aF87.121918368339536
aF87.520802021026611
aF87.91605367660523
aF88.318792080879206
aF88.722380375862116
aF89.125392961502072
aF89.522897267341619
aF89.920691084861758
aF90.326364421844488
aF90.72778506278992
aF91.130800890922544
aF91.529701685905451
aF91.930256962776184
aF92.33094508647919
aF92.730904912948603
aF93.134902954101562
aF93.539194583892822
aF93.936580991744989
aF94.334378790855411
aF94.734288072586054
aF95.129252767562861
aF95.525359392166138
aF95.925396418571466
aF96.32390921115875
aF96.719981455802923
aF97.121098160743713
aF97.520803284645083
aF97.918656229972839
aF98.319532155990601
aF98.7173454284668
aF99.113098406791693
aF99.517220926284793
aF99.919104409217837
aF100.32062287330628
aF100.72069661617279
aF101.12060146331787
aF101.52370347976685
aF101.92916169166566
aF102.33859610557556
aF102.74408268928528
aF103.15187208652496
aF103.55546467304229
aF103.95871047973633
aF104.36700608730317
aF104.77590157985688
aF105.18234601020814
aF105.5843091249466
aF105.98851511478424
aF106.39501357078552
aF106.79902777671813
aF107.2055742263794
aF107.61332406997681
aF108.02375874519348
aF108.43010189533234
aF108.83714807033539
aF109.24068620204926
aF109.63805041313171
aF110.04201028347015
aF110.44500248432159
aF110.84372019767761
aF111.24363026618957
aF111.64711608886719
aF112.04854116439819
aF112.45050339698791
aF112.86270239353181
aF113.26871335506439
aF113.66931011676789
aF114.06813635826111
aF114.46711876392365
aF114.86472067832946
aF115.26388602256775
aF115.66661565303802
aF116.07091219425202
aF116.46969540119171
aF116.86458153724671
aF117.26437788009643
aF117.6603322982788
aF118.05821030139923
aF118.45627830028533
aF118.85351767539979
aF119.25486125946045
aF119.65797839164733
aF120.05663228034973
aF120.45494675636292
aF120.85211095809936
aF121.25025031566619
aF121.6542029619217
aF122.05832760334015
aF122.45856890678405
aF122.85878927707672
aF123.25865075588226
aF123.66068716049195
aF124.06352076530456
aF124.4622633934021
aF124.86349349021911
aF125.26261851787567
aF125.66010537147523
aF126.05729217529297
aF126.45724387168885
aF126.85712568759918
aF127.25711088180542
aF127.65766754150391
aF128.05612618923186
aF128.45463612079621
aF128.85391528606414
aF129.25352389812468
aF129.65290172100066
aF130.05340440273284
aF130.45423858165742
aF130.85476179122924
aF131.25364370346068
aF131.65002315044404
aF132.04921874999999
aF132.45232260227203
aF132.85094242095948
aF133.24975347518921
aF133.64704802036286
aF134.04395792484283
aF134.44594428539276
aF134.84527127742768
aF135.24207665920258
aF135.64318897724152
aF136.04478843212127
aF136.44236087799072
aF136.83832809925079
aF137.23504340648651
aF137.63211388587951
aF138.03180978298187
aF138.43367714881896
aF138.8351411819458
aF139.23574328422546
aF139.63501226902008
aF140.03923568725585
aF140.44203989505769
aF140.84485948085785
aF141.24242110252379
aF141.64267389774324
aF142.04257469177247
aF142.43964874744415
aF142.83849096298218
aF143.23407766819
aF143.63863480091095
aF144.0385674238205
aF144.436789560318
aF144.83878090381623
aF145.23701519966124
aF145.63544700145721
aF146.03580238819123
aF146.43276910781861
aF146.83434550762178
aF147.23281807899474
aF147.63158650398253
aF148.02860538959504
aF148.42835762500764
aF148.82439169883727
aF149.22426357269288
aF149.62224559783937
aF150.02128138542176
aF150.42187931537629
aF150.819651556015
aF151.21615319252015
aF151.61406037807464
aF152.01146979331969
aF152.41155540943146
aF152.81309428215027
aF153.2164127588272
aF153.61452248096467
aF154.01451227664947
aF154.41068575382232
aF154.80625689029694
aF155.20448389053345
aF155.60462636947631
aF156.00557527542114
aF156.40320258140565
aF156.80074710845946
aF157.20153810977936
aF157.60045590400696
aF157.99940896034241
aF158.40139679908754
aF158.80280907154082
aF159.20413999557496
aF159.60245130062103
aF160.00037095546722
aF160.39574232101441
a(lp3
F62.013990564503004
aF67.496339677891655
aF82.040019521717909
aF94.468846591833412
aF94.159752724906454
aF94.582723279648604
aF95.249715308280457
aF95.688953961281925
aF96.079388319505455
aF96.27460549861722
aF96.43728648121035
aF96.534895070766225
aF96.632503660322115
aF96.73011224987799
aF96.876525134211818
aF96.99040182202701
aF97.071742313323568
aF97.201887099398078
aF97.201887099398078
aF97.25069139417603
aF97.299495688953968
aF97.332031885472588
aF97.348299983731906
aF97.413372376769161
aF97.478444769806401
aF97.527249064584353
aF97.543517162843656
aF97.559785261102988
aF97.608589555880926
aF97.608589555880926
aF97.624857654140229
aF97.657393850658863
aF97.689930047177484
aF97.722466243696118
aF97.755002440214739
aF97.771270538474056
aF97.755002440214739
aF97.803806734992676
aF97.803806734992676
aF97.787538636733359
aF97.803806734992676
aF97.803806734992676
aF97.787538636733359
aF97.803806734992676
aF97.820074833251994
aF97.836342931511311
aF97.836342931511311
aF97.820074833251994
aF97.836342931511311
aF97.868879128029931
aF97.885147226289249
aF97.852611029770614
aF97.885147226289249
aF97.917683422807883
aF97.950219619326504
aF97.950219619326504
aF97.901415324548552
aF97.820074833251994
aF97.868879128029931
aF97.852611029770614
aF97.820074833251994
aF97.852611029770614
aF97.868879128029931
aF97.803806734992676
aF97.868879128029931
aF97.852611029770614
aF97.820074833251994
aF97.885147226289249
aF97.868879128029931
aF97.868879128029931
aF97.950219619326504
aF97.950219619326504
aF97.933951521067186
aF97.933951521067186
aF97.933951521067186
aF97.933951521067186
aF97.933951521067186
aF97.950219619326504
aF97.950219619326504
aF97.933951521067186
aF97.933951521067186
aF97.933951521067186
aF97.901415324548552
aF97.933951521067186
aF97.917683422807883
aF97.901415324548552
aF97.722466243696118
aF97.868879128029931
aF97.868879128029931
aF97.852611029770614
aF97.852611029770614
aF97.868879128029931
aF97.901415324548552
aF97.901415324548552
aF97.917683422807883
aF97.901415324548552
aF97.901415324548552
aF97.901415324548552
aF97.803806734992676
aF97.885147226289249
aF97.820074833251994
aF97.820074833251994
aF97.803806734992676
aF97.836342931511311
aF97.836342931511311
aF97.836342931511311
aF97.803806734992676
aF97.836342931511311
aF97.868879128029931
aF97.852611029770614
aF97.836342931511311
aF97.868879128029931
aF97.885147226289249
aF97.852611029770614
aF97.885147226289249
aF97.836342931511311
aF97.836342931511311
aF97.820074833251994
aF97.820074833251994
aF97.803806734992676
aF97.803806734992676
aF97.868879128029931
aF97.885147226289249
aF97.836342931511311
aF97.852611029770614
aF97.868879128029931
aF97.868879128029931
aF97.836342931511311
aF97.885147226289249
aF97.852611029770614
aF97.885147226289249
aF97.868879128029931
aF97.836342931511311
aF97.901415324548552
aF97.901415324548552
aF97.917683422807883
aF97.885147226289249
aF97.901415324548552
aF97.933951521067186
aF97.917683422807883
aF97.901415324548552
aF97.901415324548552
aF97.901415324548552
aF97.917683422807883
aF97.917683422807883
aF97.901415324548552
aF97.917683422807883
aF97.917683422807883
aF97.933951521067186
aF97.917683422807883
aF97.885147226289249
aF97.917683422807883
aF97.982755815845124
aF97.950219619326504
aF97.982755815845124
aF97.901415324548552
aF97.982755815845124
aF98.015292012363759
aF98.015292012363759
aF97.966487717585821
aF97.966487717585821
aF97.933951521067186
aF97.966487717585821
aF97.852611029770614
aF97.999023914104441
aF98.015292012363759
aF97.771270538474056
aF98.031560110623076
aF98.047828208882379
aF98.096632503660317
aF98.112900601919634
aF98.015292012363759
aF97.917683422807883
aF97.933951521067186
aF97.917683422807883
aF97.885147226289249
aF97.982755815845124
aF97.933951521067186
aF97.982755815845124
aF97.852611029770614
aF98.015292012363759
aF97.982755815845124
aF97.901415324548552
aF98.080364405401014
aF97.933951521067186
aF98.047828208882379
aF97.999023914104441
aF98.047828208882379
aF97.852611029770614
aF98.112900601919634
aF98.145436798438269
aF97.933951521067186
aF98.112900601919634
aF98.064096307141696
aF98.129168700178951
aF98.161704896697572
aF98.161704896697572
aF98.080364405401014
aF98.031560110623076
aF98.129168700178951
aF98.145436798438269
aF98.194241093216206
aF98.112900601919634
aF98.145436798438269
aF98.112900601919634
aF98.129168700178951
aF98.194241093216206
aF98.177972994956889
aF98.015292012363759
aF98.047828208882379
aF98.096632503660317
aF97.917683422807883
aF98.177972994956889
aF98.226777289734841
aF98.145436798438269
aF98.177972994956889
aF98.226777289734841
aF98.177972994956889
aF97.966487717585821
aF98.259313486253447
aF98.210509191475509
aF98.275581584512778
aF97.673661948918166
aF98.080364405401014
aF98.161704896697572
aF97.982755815845124
aF98.177972994956889
aF98.194241093216206
aF98.210509191475509
aF98.275581584512778
aF98.194241093216206
aF98.243045387994144
aF98.015292012363759
aF98.243045387994144
aF98.210509191475509
aF98.226777289734841
aF98.129168700178951
aF98.210509191475509
aF98.112900601919634
aF98.031560110623076
aF98.145436798438269
aF98.210509191475509
aF98.259313486253447
aF98.340653977550033
aF98.275581584512778
aF98.373190174068654
aF98.373190174068654
aF98.356922075809337
aF98.405726370587274
aF98.405726370587274
aF98.291849682772082
aF98.421994468846592
aF98.470798763624529
aF98.421994468846592
aF98.275581584512778
aF98.356922075809337
aF98.308117781031399
aF98.243045387994144
aF98.356922075809337
aF98.389458272327971
aF98.389458272327971
aF98.243045387994144
aF98.356922075809337
aF98.421994468846592
aF98.487066861883847
aF98.470798763624529
aF98.405726370587274
aF98.356922075809337
aF98.438262567105909
aF98.340653977550033
aF98.503334960143164
aF98.503334960143164
aF98.177972994956889
aF98.519603058402467
aF98.535871156661798
aF98.552139254921101
aF98.552139254921101
aF98.519603058402467
aF98.649747844476977
aF98.519603058402467
aF98.454530665365212
aF98.487066861883847
aF98.503334960143164
aF97.722466243696118
aF98.373190174068654
aF98.535871156661798
aF98.470798763624529
aF98.503334960143164
aF98.584675451439736
aF98.633479746217674
aF98.584675451439736
aF98.698552139254929
aF98.552139254921101
aF98.600943549699039
aF98.519603058402467
aF98.535871156661798
aF98.600943549699039
aF98.600943549699039
aF98.666015942736294
aF98.649747844476977
aF98.649747844476977
aF98.649747844476977
aF98.503334960143164
aF98.519603058402467
aF98.584675451439736
aF98.259313486253447
aF98.568407353180405
aF98.633479746217674
aF98.633479746217674
aF98.649747844476977
aF98.649747844476977
aF98.682284040995611
aF98.649747844476977
aF98.633479746217674
aF98.649747844476977
aF98.649747844476977
aF98.552139254921101
aF98.633479746217674
aF98.600943549699039
aF98.470798763624529
aF98.747356434032866
aF98.812428827070121
aF98.76362453229217
aF98.552139254921101
aF98.714820237514232
aF98.714820237514232
aF98.698552139254929
aF98.161704896697572
aF98.519603058402467
aF98.698552139254929
aF98.633479746217674
aF98.698552139254929
aF98.568407353180405
aF98.552139254921101
aF98.519603058402467
aF98.584675451439736
aF98.568407353180405
aF98.779892630551487
aF98.617211647958356
aF98.76362453229217
aF98.600943549699039
aF98.76362453229217
aF98.779892630551487
aF98.649747844476977
aF98.617211647958356
aF98.714820237514232
aF98.682284040995611
aF98.812428827070121
aF98.584675451439736
aF98.731088335773549
aF98.844965023588742
aF98.779892630551487
aF98.617211647958356
aF98.844965023588742
aF98.682284040995611
aF98.682284040995611
aF98.682284040995611
aF98.796160728810804
aF98.438262567105909
aF98.812428827070121
aF98.76362453229217
aF98.714820237514232
aF98.698552139254929
aF98.714820237514232
aF98.714820237514232
aF98.796160728810804
aF98.682284040995611
aF98.731088335773549
aF98.828696925329425
aF98.812428827070121
aF98.682284040995611
aF98.731088335773549
aF98.682284040995611
aF98.828696925329425
aF98.649747844476977
aF98.828696925329425
aF98.861233121848059
aF98.844965023588742
aF98.844965023588742
aF98.861233121848059
aF98.877501220107362
aF98.779892630551487
aF98.910037416625997
aF98.926305514885314
aF98.893769318366679
aF98.877501220107362
aF98.910037416625997
aF98.698552139254929
aF98.812428827070121
aF98.76362453229217
aF98.893769318366679
aF98.861233121848059
aF98.861233121848059
aF98.926305514885314
aF98.812428827070121
aF98.910037416625997
aF98.926305514885314
aF98.747356434032866
aF98.893769318366679
aF98.910037416625997
aS'avg train/compute time'
p4
tp5
a(g2
(lp6
F61.932650073206439
aF66.910688140556374
aF82.576866764275252
aF93.997071742313324
aF93.850658857979511
aF94.729136163982432
aF94.582723279648604
aF95.168374816983885
aF95.75402635431918
aF96.193265007320647
aF96.193265007320647
aF95.900439238653007
aF95.900439238653007
aF96.33967789165446
aF96.33967789165446
aF96.33967789165446
aF96.632503660322115
aF96.632503660322115
aF96.632503660322115
aF96.632503660322115
aF96.778916544655942
aF96.632503660322115
aF96.925329428989755
aF97.218155197657396
aF97.364568081991223
aF97.364568081991223
aF97.364568081991223
aF97.364568081991223
aF97.510980966325036
aF97.218155197657396
aF97.071742313323568
aF97.071742313323568
aF97.071742313323568
aF97.071742313323568
aF96.925329428989755
aF96.925329428989755
aF96.925329428989755
aF96.925329428989755
aF97.071742313323568
aF97.071742313323568
aF97.071742313323568
aF97.218155197657396
aF97.218155197657396
aF97.218155197657396
aF97.218155197657396
aF97.218155197657396
aF97.218155197657396
aF97.071742313323568
aF97.071742313323568
aF96.925329428989755
aF96.925329428989755
aF96.778916544655942
aF96.632503660322115
aF96.632503660322115
aF96.632503660322115
aF96.486090775988288
aF96.486090775988288
aF96.486090775988288
aF96.486090775988288
aF96.33967789165446
aF96.193265007320647
aF96.193265007320647
aF96.193265007320647
aF96.193265007320647
aF96.33967789165446
aF96.193265007320647
aF96.193265007320647
aF96.193265007320647
aF96.193265007320647
aF96.193265007320647
aF96.193265007320647
aF96.193265007320647
aF96.193265007320647
aF96.04685212298682
aF96.04685212298682
aF96.04685212298682
aF96.04685212298682
aF96.04685212298682
aF96.04685212298682
aF96.04685212298682
aF96.04685212298682
aF96.04685212298682
aF96.04685212298682
aF95.900439238653007
aF95.900439238653007
aF95.900439238653007
aF95.900439238653007
aF95.900439238653007
aF95.900439238653007
aF95.75402635431918
aF95.75402635431918
aF95.75402635431918
aF95.75402635431918
aF95.75402635431918
aF95.75402635431918
aF95.75402635431918
aF95.607613469985367
aF95.607613469985367
aF95.46120058565154
aF95.607613469985367
aF95.607613469985367
aF95.46120058565154
aF95.46120058565154
aF95.314787701317712
aF95.168374816983885
aF95.168374816983885
aF95.168374816983885
aF95.168374816983885
aF95.168374816983885
aF95.168374816983885
aF95.168374816983885
aF95.314787701317712
aF95.314787701317712
aF95.314787701317712
aF95.314787701317712
aF95.314787701317712
aF95.314787701317712
aF95.314787701317712
aF95.314787701317712
aF95.314787701317712
aF95.314787701317712
aF95.314787701317712
aF95.314787701317712
aF95.314787701317712
aF95.314787701317712
aF95.314787701317712
aF95.314787701317712
aF95.314787701317712
aF95.46120058565154
aF95.46120058565154
aF95.46120058565154
aF95.46120058565154
aF95.607613469985367
aF95.607613469985367
aF95.314787701317712
aF95.46120058565154
aF95.46120058565154
aF95.314787701317712
aF95.46120058565154
aF95.46120058565154
aF95.46120058565154
aF95.314787701317712
aF95.46120058565154
aF95.314787701317712
aF95.46120058565154
aF95.168374816983885
aF95.021961932650072
aF94.875549048316259
aF95.021961932650072
aF95.021961932650072
aF95.021961932650072
aF95.021961932650072
aF94.875549048316259
aF95.021961932650072
aF95.021961932650072
aF95.021961932650072
aF95.021961932650072
aF95.021961932650072
aF95.021961932650072
aF94.875549048316259
aF94.875549048316259
aF95.021961932650072
aF95.021961932650072
aF95.021961932650072
aF95.021961932650072
aF95.021961932650072
aF94.729136163982432
aF95.021961932650072
aF95.168374816983885
aF95.168374816983885
aF94.875549048316259
aF95.021961932650072
aF95.168374816983885
aF94.875549048316259
aF94.875549048316259
aF95.021961932650072
aF94.875549048316259
aF95.314787701317712
aF95.021961932650072
aF94.729136163982432
aF94.729136163982432
aF94.729136163982432
aF94.729136163982432
aF94.875549048316259
aF94.729136163982432
aF94.729136163982432
aF94.582723279648604
aF94.582723279648604
aF94.875549048316259
aF95.314787701317712
aF95.46120058565154
aF95.168374816983885
aF95.314787701317712
aF95.168374816983885
aF94.875549048316259
aF94.875549048316259
aF95.168374816983885
aF95.314787701317712
aF95.168374816983885
aF95.021961932650072
aF95.168374816983885
aF94.875549048316259
aF95.021961932650072
aF95.314787701317712
aF95.314787701317712
aF95.021961932650072
aF95.314787701317712
aF94.729136163982432
aF95.314787701317712
aF95.168374816983885
aF95.168374816983885
aF94.875549048316259
aF95.46120058565154
aF95.314787701317712
aF95.168374816983885
aF95.168374816983885
aF95.46120058565154
aF95.607613469985367
aF95.314787701317712
aF95.314787701317712
aF95.314787701317712
aF95.607613469985367
aF94.875549048316259
aF95.75402635431918
aF95.607613469985367
aF95.021961932650072
aF95.46120058565154
aF95.021961932650072
aF95.900439238653007
aF95.46120058565154
aF95.607613469985367
aF95.46120058565154
aF94.875549048316259
aF95.607613469985367
aF95.46120058565154
aF95.168374816983885
aF95.75402635431918
aF95.168374816983885
aF95.607613469985367
aF95.900439238653007
aF94.875549048316259
aF95.168374816983885
aF95.314787701317712
aF94.875549048316259
aF94.729136163982432
aF95.46120058565154
aF95.021961932650072
aF94.875549048316259
aF95.021961932650072
aF95.314787701317712
aF95.021961932650072
aF94.875549048316259
aF95.314787701317712
aF95.168374816983885
aF95.607613469985367
aF95.314787701317712
aF95.607613469985367
aF95.314787701317712
aF95.607613469985367
aF95.46120058565154
aF95.607613469985367
aF95.314787701317712
aF95.314787701317712
aF95.607613469985367
aF95.314787701317712
aF95.46120058565154
aF95.021961932650072
aF95.314787701317712
aF95.46120058565154
aF95.46120058565154
aF95.607613469985367
aF95.46120058565154
aF95.168374816983885
aF95.314787701317712
aF95.314787701317712
aF95.46120058565154
aF95.314787701317712
aF95.168374816983885
aF95.314787701317712
aF95.46120058565154
aF95.314787701317712
aF95.314787701317712
aF95.46120058565154
aF95.021961932650072
aF95.314787701317712
aF94.875549048316259
aF95.314787701317712
aF94.875549048316259
aF95.46120058565154
aF95.168374816983885
aF95.314787701317712
aF95.314787701317712
aF95.314787701317712
aF95.314787701317712
aF95.314787701317712
aF95.314787701317712
aF95.168374816983885
aF95.46120058565154
aF95.46120058565154
aF95.168374816983885
aF95.314787701317712
aF94.875549048316259
aF95.168374816983885
aF95.021961932650072
aF95.021961932650072
aF94.875549048316259
aF95.168374816983885
aF95.168374816983885
aF95.168374816983885
aF95.168374816983885
aF95.46120058565154
aF95.314787701317712
aF95.168374816983885
aF95.314787701317712
aF95.168374816983885
aF95.314787701317712
aF95.46120058565154
aF95.314787701317712
aF95.314787701317712
aF94.875549048316259
aF95.168374816983885
aF95.168374816983885
aF94.875549048316259
aF94.729136163982432
aF95.021961932650072
aF95.314787701317712
aF95.168374816983885
aF94.875549048316259
aF95.314787701317712
aF95.46120058565154
aF95.168374816983885
aF95.314787701317712
aF94.875549048316259
aF95.021961932650072
aF95.168374816983885
aF95.168374816983885
aF95.168374816983885
aF95.314787701317712
aF95.314787701317712
aF95.314787701317712
aF95.314787701317712
aF95.314787701317712
aF95.168374816983885
aF95.314787701317712
aF95.021961932650072
aF95.021961932650072
aF95.168374816983885
aF95.168374816983885
aF95.021961932650072
aF95.168374816983885
aF95.168374816983885
aF95.168374816983885
aF95.021961932650072
aF95.168374816983885
aF94.875549048316259
aF95.021961932650072
aF94.875549048316259
aF95.021961932650072
aF94.729136163982432
aF95.021961932650072
aF95.021961932650072
aF95.021961932650072
aF95.021961932650072
aF95.021961932650072
aF95.168374816983885
aF95.168374816983885
aF95.168374816983885
aF95.021961932650072
aF95.168374816983885
aF95.021961932650072
aF94.875549048316259
aF95.021961932650072
aF95.168374816983885
aF95.021961932650072
aF94.875549048316259
aF95.168374816983885
aF95.314787701317712
aF95.168374816983885
aF95.168374816983885
aF95.168374816983885
aF95.314787701317712
aF95.168374816983885
aF95.168374816983885
aF95.314787701317712
aF95.314787701317712
aF95.168374816983885
aF95.314787701317712
aF95.021961932650072
aF95.314787701317712
aF95.314787701317712
aF95.46120058565154
aF95.314787701317712
aF95.46120058565154
aF95.314787701317712
aF95.607613469985367
aF95.46120058565154
aF95.46120058565154
aF95.314787701317712
aF95.46120058565154
aF95.46120058565154
aS'avg test/compute time'
p7
tp8
aS'breast cancers iterative accuracy from 1 to 400 epochs on train and test with timings'
p9
t.