((lp1
F65.0070618773142
aF65.0070618773142
aF65.0070618773142
aF65.0070618773142
aF65.0070618773142
aF68.242355994961258
aF65.0070618773142
aF70.701861536308229
aF75.739238589660388
aF74.918374877530511
aF81.537326156939088
aF85.506482930615476
aF80.730395337888567
aF86.817097377562305
aF71.810639895153386
aF65.0070618773142
aF65.0070618773142
aF67.948238347902432
aF79.587198279701241
aF86.194188902037141
aF76.831443803997928
aF91.945292717995684
aF90.474768103217926
aF91.646912496341798
aF90.911491137662068
aF92.096932218701909
aF91.92385260398774
aF90.766499980913835
aF90.336170808362283
aF88.863260424221579
aF65.0070618773142
aF67.654120700843606
aF76.276195747604703
aF82.156290160450936
aF86.678818185288407
aF91.789645124759815
aF92.520740288328184
aF92.22662264126933
aF92.23301650316192
aF91.938898856103123
aF91.062939776819221
aF92.525066483439574
aF92.081695105037483
aF91.207803692534753
aF91.506247534704983
aF65.0070618773142
aF65.0070618773142
aF73.375386494636786
aF94.290026847857916
aF87.744525454568574
aF92.957654184321342
aF92.667799111857576
aF93.249640544082666
aF93.100450433255702
aF93.398830654909588
aF92.961916758916431
aF93.400961942207132
aF93.104713007850762
aF92.816989222684526
aF92.964048046213946
aF65.0070618773142
aF65.0070618773142
aF87.303539845529386
aF82.818229822753239
aF93.697274497079832
aF93.401025562723476
aF93.997976867580263
aF93.686490819559509
aF93.692948301968414
aF93.997976867580263
aF93.692948301968414
aF94.577687012507795
aF94.287895560560372
aF94.285700652746499
aF93.545889478439008
aF65.0070618773142
aF65.0070618773142
aF73.600412260945916
aF91.817542721176736
aF94.581949587102855
aF94.285637032230142
aF93.984998282246067
aF94.724745836037215
aF94.424043465536769
aF93.976409512539604
aF94.132057105775488
aF94.724745836037215
aF94.579818299805339
aF93.989324477357471
aF94.129925818477943
aF65.0070618773142
aF65.0070618773142
aF81.766519067068742
aF88.657957017979172
aF95.607162397730036
aF94.729072031148618
aF91.39360741051776
aF94.134315634105675
aF94.71835197414461
aF94.722614548739699
aF94.276984642007363
aF94.724745836037215
aF95.163791019327917
aF94.566776093954772
aF94.287831940044043
aF65.0070618773142
aF67.905612601951873
aF73.974596327823789
aF94.876194475194367
aF89.286686770749839
aF95.313044750671196
aF95.460103574200616
aF95.453646091791683
aF95.609357305543895
aF94.428433281164502
aF95.016795816314854
aF95.161659732030401
aF95.165985927141804
aF95.4579722869031
aF95.752089933961912
aF65.0070618773142
aF67.760685065719983
aF71.18353246554949
aF82.900363909353501
aF92.073424437912735
aF95.31091346337368
aF95.749958646664396
aF95.602899823134976
aF94.8630886488275
aF95.31517603796874
aF95.752089933961926
aF95.457972286903072
aF95.313044750671196
aF96.041945006425706
aF95.45370971230804
aF65.0070618773142
aF71.430761792062711
aF68.389414818490664
aF84.075689328294587
aF95.306587268262277
aF95.4579722869031
aF95.602899823134976
aF95.60503111043252
aF95.16172335254673
aF95.749958646664396
aF95.897017470193802
aF95.897017470193802
aF95.897017470193802
aF95.897017470193802
aF95.897017470193802
aF65.0070618773142
aF65.0070618773142
aF80.94269700092886
aF89.330521306510917
aF93.100832156353789
aF95.313044750671196
aF96.041945006425706
aF95.602899823134976
aF95.894886182896286
aF96.191135117252628
aF95.602899823134976
aF95.749958646664396
aF95.894886182896272
aF96.041945006425706
aF96.044076293723222
aF65.0070618773142
aF71.573558040997071
aF71.140906719598945
aF92.851407922026709
aF92.077750633024152
aF92.853539209324254
aF96.041945006425678
aF96.191135117252628
aF96.044076293723222
aF96.189003829955098
aF96.044076293723222
aF95.897017470193802
aF96.044076293723222
aF95.897017470193802
aF96.189003829955098
aF65.0070618773142
aF65.0070618773142
aF77.401706302248357
aF86.884725986436109
aF92.853539209324225
aF96.041945006425678
aF96.044076293723222
aF95.60503111043252
aF96.044076293723222
aF96.186872542657582
aF96.041945006425678
aF96.044076293723222
aF95.749958646664396
aF95.899148757491318
aF96.189003829955098
aF65.0070618773142
aF65.0070618773142
aF76.831443803997914
aF83.631459072921842
aF92.712874247687409
aF95.897017470193802
aF96.191135117252628
aF95.749958646664396
aF96.041945006425678
aF95.899148757491318
aF96.191135117252628
aF96.191135117252628
aF96.480990189716408
aF95.749958646664396
aF96.041945006425678
aF65.0070618773142
aF65.0070618773142
aF74.329312516700384
aF87.076541843213619
aF86.784555483452309
aF95.607162397730036
aF95.899148757491318
aF96.189003829955098
aF95.752089933961912
aF95.897017470193802
aF96.044076293723222
aF96.191135117252628
aF96.336062653484504
aF95.899148757491318
aF96.336062653484504
aS'breast cancers averages over 10 fold cross validation varying hidden units from 1 to 10, hidden layer = 2, epochs = 100'
p2
t.