((lp1
((lp2
F12.878514051437378
aF26.35042405128479
aF40.635642051696777
aF54.507578134536743
aF68.386435031890869
aF82.305612087249756
aF96.198320150375366
aF110.13169097900391
aF124.18276500701904
aF138.25418996810913
a(lp3
F65.0070618773142
aF67.5070618773142
aF67.615757529488107
aF65.0070618773142
aF68.242355994961258
aF65.0070618773142
aF83.154973215762624
aF73.691198737768957
aF87.597848354137241
aF93.14772047689938
aS'0 HL2 units'
p4
tp5
a((lp6
F17.649896144866943
aF36.257081985473633
aF54.916788101196289
aF73.886247158050537
aF92.68789005279541
aF111.76517605781555
aF130.67177414894104
aF149.53506112098694
aF168.56502819061279
aF187.56978106498718
a(lp7
F65.0070618773142
aF65.0070618773142
aF65.0070618773142
aF65.0070618773142
aF65.0070618773142
aF65.0070618773142
aF65.0070618773142
aF65.0070618773142
aF65.0070618773142
aF65.0070618773142
aS'1 HL2 units'
tp8
a((lp9
F18.263607025146484
aF37.625655174255371
aF56.995990991592407
aF76.431490182876587
aF95.934779167175293
aF115.44843912124634
aF135.008052110672
aF154.54600214958191
aF174.26871013641357
aF193.96202516555786
a(lp10
F65.0070618773142
aF65.0070618773142
aF70.889414818490678
aF71.136644145003885
aF65.0070618773142
aF67.801179524373026
aF67.760685065719983
aF70.600832156353789
aF70.9333129747681
aF65.0070618773142
aS'2 HL2 units'
tp11
a((lp12
F18.364501953125
aF37.690114974975586
aF57.216407060623169
aF76.606426000595093
aF96.050740003585815
aF115.62085199356079
aF135.36043691635132
aF155.04727911949158
aF174.76716709136963
aF194.64851808547974
a(lp13
F65.0070618773142
aF65.0070618773142
aF70.742355994961258
aF77.051984323904776
aF80.547613594431937
aF82.956763497092552
aF76.438428064282178
aF80.398359863088643
aF74.075689328294601
aF70.998110470664571
aS'3 HL2 units'
tp14
a((lp15
F18.324457168579102
aF37.768909215927124
aF57.471637010574341
aF76.957403182983398
aF96.575096130371094
aF116.19293808937073
aF136.04436111450195
aF155.70646119117737
aF175.63558721542358
aF195.77693104743958
a(lp16
F65.0070618773142
aF73.894529908004728
aF85.937511928846817
aF82.229994528635586
aF88.401280044788862
aF82.354881602219081
aF91.495972821315419
aF90.807567024213967
aF85.904333829573361
aF86.672869667010232
aS'4 HL2 units'
tp17
a((lp18
F18.432265043258667
aF37.956943035125732
aF57.452934980392456
aF77.123312950134277
aF96.745800018310547
aF116.37809896469116
aF136.11926007270813
aF155.87731695175171
aF175.81326508522034
aF195.68607616424561
a(lp19
F71.378879260984078
aF83.523685918234918
aF86.689856344874102
aF93.70392284103778
aF93.699723886959077
aF91.638769070249779
aF88.29691058772633
aF92.371931900599307
aF95.166049547658119
aF94.869800613301777
aS'5 HL2 units'
tp20
a((lp21
F18.699273109436035
aF38.33899998664856
aF58.129661083221436
aF77.587697982788086
aF96.626353025436401
aF114.78728294372559
aF135.01180410385132
aF155.10312104225159
aF175.49243998527527
aF195.87050008773804
a(lp22
F70.786254151238694
aF87.376003613645338
aF92.819374992047443
aF92.964366148795676
aF93.993841534017903
aF94.727004364367417
aF95.016859436831197
aF88.156245626089515
aF94.871931900599321
aF92.663918260360603
aS'6 HL2 units'
tp23
a((lp24
F18.925683975219727
aF38.789163112640381
aF58.775236129760742
aF78.294188976287842
aF98.619598150253296
aF118.41655516624451
aF138.34684014320374
aF158.43717908859253
aF178.39989709854126
aF198.702073097229
a(lp25
F76.719630746523151
aF86.795211919939931
aF89.87613085467801
aF93.701855174256593
aF93.701855174256593
aF94.430691809494732
aF94.871931900599321
aF95.166049547658119
aF94.287959181076701
aF95.315239658485069
aS'7 HL2 units'
tp26
a((lp27
F18.542196035385132
aF39.057047843933105
aF59.258601903915405
aF79.336249828338623
aF99.308333873748779
aF119.34375500679016
aF139.59598398208618
aF159.48984098434448
aF179.70496797561646
aF200.07626104354858
a(lp28
F71.227430621826926
aF92.237469939306024
aF92.092669644106849
aF93.405542619383894
aF93.70392284103778
aF94.149425506737401
aF94.577814253540481
aF95.01679581631484
aF92.224873077069901
aF95.313108371187525
aS'8 HL2 units'
tp29
a((lp30
F19.237182140350342
aF38.174316167831421
aF58.083320140838623
aF78.742681980133057
aF98.709723949432373
aF118.38617610931396
aF136.70875000953674
aF154.80363607406616
aF172.90743708610535
aF191.71679306030273
a(lp31
F77.27262027458616
aF91.807140766754472
aF91.796293468717792
aF93.109293685027552
aF93.84671908997214
aF94.140900357547295
aF94.582076828135541
aF95.016859436831183
aF95.310977083890023
aF95.600832156353789
aS'9 HL2 units'
tp32
a((lp33
F17.166307210922241
aF35.214605093002319
aF53.38811206817627
aF71.390008211135864
aF89.379419088363647
aF107.41370320320129
aF125.74589610099792
aF144.06721305847168
aF162.68259000778198
aF180.74345016479492
a(lp34
F79.518074588693366
aF92.241732513901084
aF91.943415912763555
aF93.55686401750836
aF93.995972821315419
aF94.437149291903665
aF94.430755430011075
aF95.166049547658119
aF94.724873077069873
aF95.605094730948835
aS'10 HL2 units'
tp35
aS'breast cancers averages over 10 fold cross validation varying hidden units from 1 to 10, hidden layer = 2, epochs = 10 (with timings)'
p36
t.