((lp1
F65.0070618773142
aF86.583546462063083
aF89.673913043478265
aF96.489769820971873
aF96.197783461210577
aF96.050724637681157
aF96.491901108269388
aF96.050724637681157
aF96.491901108269388
aF96.342710997442452
aF96.930946291560105
aF96.195652173913032
aF96.195652173913032
aF96.344842284739997
aF96.783887468030684
aF65.0070618773142
aF83.938618925831207
aF89.582935705106181
aF93.260869565217405
aF96.048529729867283
aF95.763000852514921
aF96.786018755328229
aF96.641091219096324
aF96.638959931798809
aF96.636828644501264
aF95.910059676044341
aF96.930946291560105
aF96.351236146632587
aF96.781692560216811
aF96.641091219096324
aF65.0070618773142
aF83.554987212276231
aF93.695652173913047
aF96.494032395566904
aF96.494032395566919
aF95.760869565217391
aF96.346973572037513
aF96.786018755328229
aF96.786018755328229
aF95.760869565217391
aF96.344842284739983
aF96.494032395566933
aF96.641091219096353
aF96.054987212276217
aF96.930946291560105
aF65.0070618773142
aF78.001520530340628
aF89.735720375106581
aF96.351236146632573
aF93.30562659846548
aF96.498294970161993
aF96.641091219096324
aF96.636828644501279
aF96.199914748508107
aF96.641091219096353
aF96.783887468030699
aF96.641091219096353
aF96.351236146632573
aF96.643222506393869
aF96.786018755328229
aF65.0070618773142
aF77.809036658141522
aF93.452685421994886
aF93.597612958226776
aF96.496163682864463
aF96.494032395566933
aF96.930946291560119
aF96.641091219096353
aF96.057118499573747
aF96.641091219096353
aF96.788150042625759
aF96.788150042625745
aF96.641091219096353
aF96.346973572037513
aF96.643222506393869
aF65.0070618773142
aF74.569479965899404
aF80.368712702472308
aF90.993179880647901
aF96.790281329923275
aF96.643222506393869
aF96.788150042625745
aF96.643222506393869
aF96.199914748508107
aF96.788150042625745
aF96.935208866155151
aF96.494032395566904
aF96.349104859335029
aF96.496163682864449
aF96.206308610400697
aF65.0070618773142
aF74.134697357203748
aF93.548593350383641
aF96.638959931798809
aF96.494032395566904
aF93.597612958226776
aF96.786018755328229
aF96.788150042625759
aF96.638959931798823
aF96.638959931798809
aF96.641091219096353
aF96.786018755328229
aF96.346973572037513
aF96.638959931798809
aF96.786018755328229
aF65.0070618773142
aF74.670318484304815
aF83.895993179880662
aF93.846973572037513
aF96.346973572037513
aF96.204177323103153
aF96.933077578857635
aF96.638959931798809
aF95.910059676044341
aF96.930946291560105
aF96.351236146632573
aF96.788150042625745
aF96.494032395566933
aF96.933077578857635
aF96.496163682864463
aF65.0070618773142
aF73.892398620707212
aF83.698451476632187
aF93.11167945439044
aF93.307757885762996
aF96.496163682864449
aF96.498294970161993
aF96.494032395566919
aF96.498294970161993
aF96.788150042625759
aF96.786018755328229
aF96.933077578857635
aF96.498294970161993
aF96.496163682864449
aF96.786018755328229
aF65.0070618773142
aF65.0070618773142
aF86.106138107416882
aF93.550724637681157
aF93.113810741687985
aF96.349104859335029
aF96.054987212276217
aF96.641091219096353
aF96.783887468030699
aF96.496163682864449
aF96.786018755328229
aF96.638959931798809
aF96.643222506393869
aF96.206308610400669
aF96.783887468030699
aF65.0070618773142
aF67.948238347902432
aF84.572279268618558
aF96.788150042625759
aF96.641091219096324
aF96.351236146632573
aF96.498294970161993
aF96.786018755328229
aF96.786018755328229
aF96.641091219096324
aF96.494032395566919
aF96.788150042625745
aF96.788150042625745
aF96.496163682864449
aF96.643222506393869
aF65.0070618773142
aF71.03647364202007
aF74.325049942105323
aF87.026854219948859
aF96.498294970161993
aF96.494032395566933
aF96.788150042625745
aF97.07800511508951
aF96.786018755328229
aF96.498294970161993
aF96.786018755328229
aF96.786018755328229
aF96.788150042625759
aF96.786018755328229
aF96.641091219096353
aF65.0070618773142
aF72.460173556768581
aF87.320971867007685
aF96.496163682864449
aF93.742540494458652
aF96.496163682864449
aF96.496163682864449
aF96.933077578857635
aF96.351236146632573
aF96.498294970161993
aF96.788150042625745
aF96.349104859335029
aF96.641091219096324
aF96.641091219096339
aF96.641091219096324
aF65.0070618773142
aF67.760685065719997
aF80.701193520886619
aF92.821824381926675
aF96.786018755328229
aF96.786018755328229
aF96.494032395566919
aF96.496163682864449
aF96.638959931798823
aF96.204177323103153
aF96.643222506393869
aF96.643222506393869
aF96.641091219096324
aF96.788150042625745
aF96.349104859335043
aF65.0070618773142
aF65.0070618773142
aF81.432225063938631
aF90.117888816785651
aF93.11167945439044
aF93.258738277919875
aF96.641091219096324
aF96.491901108269388
aF96.498294970161993
aF96.204177323103153
aF96.496163682864449
aF96.643222506393869
aF96.788150042625745
aF96.349104859335043
aF96.349104859335043
ag1
t.